
ADS1256.elf:     file format elf32-littlearm

Sections:
Idx Name          Size      VMA       LMA       File off  Algn
  0 .isr_vector   0000010c  08000000  08000000  00010000  2**0
                  CONTENTS, ALLOC, LOAD, READONLY, DATA
  1 .text         0000506c  0800010c  0800010c  0001010c  2**2
                  CONTENTS, ALLOC, LOAD, READONLY, CODE
  2 .rodata       0000010c  08005178  08005178  00015178  2**0
                  CONTENTS, ALLOC, LOAD, READONLY, DATA
  3 .ARM.extab    00000000  08005284  08005284  000201dc  2**0
                  CONTENTS
  4 .ARM          00000000  08005284  08005284  000201dc  2**0
                  CONTENTS
  5 .preinit_array 00000000  08005284  08005284  000201dc  2**0
                  CONTENTS, ALLOC, LOAD, DATA
  6 .init_array   00000004  08005284  08005284  00015284  2**2
                  CONTENTS, ALLOC, LOAD, DATA
  7 .fini_array   00000004  08005288  08005288  00015288  2**2
                  CONTENTS, ALLOC, LOAD, DATA
  8 .data         000001dc  20000000  0800528c  00020000  2**2
                  CONTENTS, ALLOC, LOAD, DATA
  9 .bss          00001ca0  200001dc  08005468  000201dc  2**2
                  ALLOC
 10 ._user_heap_stack 00000604  20001e7c  08005468  00021e7c  2**0
                  ALLOC
 11 .ARM.attributes 00000029  00000000  00000000  000201dc  2**0
                  CONTENTS, READONLY
 12 .comment      00000043  00000000  00000000  00020205  2**0
                  CONTENTS, READONLY
 13 .debug_frame  00000a10  00000000  00000000  00020248  2**2
                  CONTENTS, READONLY, DEBUGGING, OCTETS

Disassembly of section .text:

0800010c <__do_global_dtors_aux>:
 800010c:	b510      	push	{r4, lr}
 800010e:	4c05      	ldr	r4, [pc, #20]	; (8000124 <__do_global_dtors_aux+0x18>)
 8000110:	7823      	ldrb	r3, [r4, #0]
 8000112:	b933      	cbnz	r3, 8000122 <__do_global_dtors_aux+0x16>
 8000114:	4b04      	ldr	r3, [pc, #16]	; (8000128 <__do_global_dtors_aux+0x1c>)
 8000116:	b113      	cbz	r3, 800011e <__do_global_dtors_aux+0x12>
 8000118:	4804      	ldr	r0, [pc, #16]	; (800012c <__do_global_dtors_aux+0x20>)
 800011a:	f3af 8000 	nop.w
 800011e:	2301      	movs	r3, #1
 8000120:	7023      	strb	r3, [r4, #0]
 8000122:	bd10      	pop	{r4, pc}
 8000124:	200001dc 	.word	0x200001dc
 8000128:	00000000 	.word	0x00000000
 800012c:	08005160 	.word	0x08005160

08000130 <frame_dummy>:
 8000130:	b508      	push	{r3, lr}
 8000132:	4b03      	ldr	r3, [pc, #12]	; (8000140 <frame_dummy+0x10>)
 8000134:	b11b      	cbz	r3, 800013e <frame_dummy+0xe>
 8000136:	4903      	ldr	r1, [pc, #12]	; (8000144 <frame_dummy+0x14>)
 8000138:	4803      	ldr	r0, [pc, #12]	; (8000148 <frame_dummy+0x18>)
 800013a:	f3af 8000 	nop.w
 800013e:	bd08      	pop	{r3, pc}
 8000140:	00000000 	.word	0x00000000
 8000144:	200001e0 	.word	0x200001e0
 8000148:	08005160 	.word	0x08005160

0800014c <strlen>:
 800014c:	4603      	mov	r3, r0
 800014e:	f813 2b01 	ldrb.w	r2, [r3], #1
 8000152:	2a00      	cmp	r2, #0
 8000154:	d1fb      	bne.n	800014e <strlen+0x2>
 8000156:	1a18      	subs	r0, r3, r0
 8000158:	3801      	subs	r0, #1
 800015a:	4770      	bx	lr

0800015c <readRegister>:
 800015c:	2300      	movs	r3, #0
 800015e:	b513      	push	{r0, r1, r4, lr}
 8000160:	4c0c      	ldr	r4, [pc, #48]	; (8000194 <readRegister+0x38>)
 8000162:	f040 0010 	orr.w	r0, r0, #16
 8000166:	f88d 0004 	strb.w	r0, [sp, #4]
 800016a:	f88d 3005 	strb.w	r3, [sp, #5]
 800016e:	a901      	add	r1, sp, #4
 8000170:	f04f 33ff 	mov.w	r3, #4294967295
 8000174:	2202      	movs	r2, #2
 8000176:	4620      	mov	r0, r4
 8000178:	f001 ffef 	bl	800215a <HAL_SPI_Transmit>
 800017c:	f04f 33ff 	mov.w	r3, #4294967295
 8000180:	2201      	movs	r2, #1
 8000182:	4620      	mov	r0, r4
 8000184:	f10d 0103 	add.w	r1, sp, #3
 8000188:	f002 f990 	bl	80024ac <HAL_SPI_Receive>
 800018c:	f89d 0003 	ldrb.w	r0, [sp, #3]
 8000190:	b002      	add	sp, #8
 8000192:	bd10      	pop	{r4, pc}
 8000194:	20000204 	.word	0x20000204

08000198 <sendCommand>:
 8000198:	b507      	push	{r0, r1, r2, lr}
 800019a:	f04f 33ff 	mov.w	r3, #4294967295
 800019e:	f88d 0007 	strb.w	r0, [sp, #7]
 80001a2:	2201      	movs	r2, #1
 80001a4:	f10d 0107 	add.w	r1, sp, #7
 80001a8:	4802      	ldr	r0, [pc, #8]	; (80001b4 <sendCommand+0x1c>)
 80001aa:	f001 ffd6 	bl	800215a <HAL_SPI_Transmit>
 80001ae:	b003      	add	sp, #12
 80001b0:	f85d fb04 	ldr.w	pc, [sp], #4
 80001b4:	20000204 	.word	0x20000204

080001b8 <writeRegister>:
 80001b8:	2300      	movs	r3, #0
 80001ba:	b507      	push	{r0, r1, r2, lr}
 80001bc:	f040 0050 	orr.w	r0, r0, #80	; 0x50
 80001c0:	f88d 0004 	strb.w	r0, [sp, #4]
 80001c4:	f88d 3005 	strb.w	r3, [sp, #5]
 80001c8:	f88d 1006 	strb.w	r1, [sp, #6]
 80001cc:	f04f 33ff 	mov.w	r3, #4294967295
 80001d0:	2203      	movs	r2, #3
 80001d2:	a901      	add	r1, sp, #4
 80001d4:	4802      	ldr	r0, [pc, #8]	; (80001e0 <writeRegister+0x28>)
 80001d6:	f001 ffc0 	bl	800215a <HAL_SPI_Transmit>
 80001da:	b003      	add	sp, #12
 80001dc:	f85d fb04 	ldr.w	pc, [sp], #4
 80001e0:	20000204 	.word	0x20000204

080001e4 <setupADS1256>:
 80001e4:	b538      	push	{r3, r4, r5, lr}
 80001e6:	2064      	movs	r0, #100	; 0x64
 80001e8:	f000 fbbc 	bl	8000964 <HAL_Delay>
 80001ec:	20fe      	movs	r0, #254	; 0xfe
 80001ee:	f7ff ffd3 	bl	8000198 <sendCommand>
 80001f2:	2064      	movs	r0, #100	; 0x64
 80001f4:	f000 fbb6 	bl	8000964 <HAL_Delay>
 80001f8:	2000      	movs	r0, #0
 80001fa:	f7ff ffaf 	bl	800015c <readRegister>
 80001fe:	f000 01f0 	and.w	r1, r0, #240	; 0xf0
 8000202:	4604      	mov	r4, r0
 8000204:	f041 0102 	orr.w	r1, r1, #2
 8000208:	2000      	movs	r0, #0
 800020a:	f7ff ffd5 	bl	80001b8 <writeRegister>
 800020e:	4d14      	ldr	r5, [pc, #80]	; (8000260 <setupADS1256+0x7c>)
 8000210:	2102      	movs	r1, #2
 8000212:	4628      	mov	r0, r5
 8000214:	f000 fd08 	bl	8000c28 <HAL_GPIO_ReadPin>
 8000218:	2800      	cmp	r0, #0
 800021a:	d1f9      	bne.n	8000210 <setupADS1256+0x2c>
 800021c:	2163      	movs	r1, #99	; 0x63
 800021e:	2003      	movs	r0, #3
 8000220:	f7ff ffca 	bl	80001b8 <writeRegister>
 8000224:	4d0e      	ldr	r5, [pc, #56]	; (8000260 <setupADS1256+0x7c>)
 8000226:	2102      	movs	r1, #2
 8000228:	4628      	mov	r0, r5
 800022a:	f000 fcfd 	bl	8000c28 <HAL_GPIO_ReadPin>
 800022e:	4601      	mov	r1, r0
 8000230:	2800      	cmp	r0, #0
 8000232:	d1f8      	bne.n	8000226 <setupADS1256+0x42>
 8000234:	2002      	movs	r0, #2
 8000236:	f7ff ffbf 	bl	80001b8 <writeRegister>
 800023a:	4d09      	ldr	r5, [pc, #36]	; (8000260 <setupADS1256+0x7c>)
 800023c:	2102      	movs	r1, #2
 800023e:	4628      	mov	r0, r5
 8000240:	f000 fcf2 	bl	8000c28 <HAL_GPIO_ReadPin>
 8000244:	2800      	cmp	r0, #0
 8000246:	d1f9      	bne.n	800023c <setupADS1256+0x58>
 8000248:	20f0      	movs	r0, #240	; 0xf0
 800024a:	f7ff ffa5 	bl	8000198 <sendCommand>
 800024e:	4d04      	ldr	r5, [pc, #16]	; (8000260 <setupADS1256+0x7c>)
 8000250:	2102      	movs	r1, #2
 8000252:	4628      	mov	r0, r5
 8000254:	f000 fce8 	bl	8000c28 <HAL_GPIO_ReadPin>
 8000258:	2800      	cmp	r0, #0
 800025a:	d1f9      	bne.n	8000250 <setupADS1256+0x6c>
 800025c:	4620      	mov	r0, r4
 800025e:	bd38      	pop	{r3, r4, r5, pc}
 8000260:	40010c00 	.word	0x40010c00

08000264 <stopSampling>:
 8000264:	b510      	push	{r4, lr}
 8000266:	4c09      	ldr	r4, [pc, #36]	; (800028c <stopSampling+0x28>)
 8000268:	2102      	movs	r1, #2
 800026a:	4620      	mov	r0, r4
 800026c:	f000 fcdc 	bl	8000c28 <HAL_GPIO_ReadPin>
 8000270:	2800      	cmp	r0, #0
 8000272:	d1f9      	bne.n	8000268 <stopSampling+0x4>
 8000274:	200f      	movs	r0, #15
 8000276:	f7ff ff8f 	bl	8000198 <sendCommand>
 800027a:	4c04      	ldr	r4, [pc, #16]	; (800028c <stopSampling+0x28>)
 800027c:	2102      	movs	r1, #2
 800027e:	4620      	mov	r0, r4
 8000280:	f000 fcd2 	bl	8000c28 <HAL_GPIO_ReadPin>
 8000284:	2800      	cmp	r0, #0
 8000286:	d1f9      	bne.n	800027c <stopSampling+0x18>
 8000288:	bd10      	pop	{r4, pc}
 800028a:	bf00      	nop
 800028c:	40010c00 	.word	0x40010c00

08000290 <setChannel>:
 8000290:	b538      	push	{r3, r4, r5, lr}
 8000292:	b2c4      	uxtb	r4, r0
 8000294:	2c07      	cmp	r4, #7
 8000296:	bf8e      	itee	hi
 8000298:	2480      	movhi	r4, #128	; 0x80
 800029a:	0124      	lslls	r4, r4, #4
 800029c:	b2e4      	uxtbls	r4, r4
 800029e:	b2c9      	uxtb	r1, r1
 80002a0:	2908      	cmp	r1, #8
 80002a2:	bf94      	ite	ls
 80002a4:	430c      	orrls	r4, r1
 80002a6:	f044 0408 	orrhi.w	r4, r4, #8
 80002aa:	4d09      	ldr	r5, [pc, #36]	; (80002d0 <setChannel+0x40>)
 80002ac:	2102      	movs	r1, #2
 80002ae:	4628      	mov	r0, r5
 80002b0:	f000 fcba 	bl	8000c28 <HAL_GPIO_ReadPin>
 80002b4:	2800      	cmp	r0, #0
 80002b6:	d1f9      	bne.n	80002ac <setChannel+0x1c>
 80002b8:	4621      	mov	r1, r4
 80002ba:	2001      	movs	r0, #1
 80002bc:	f7ff ff7c 	bl	80001b8 <writeRegister>
 80002c0:	2001      	movs	r0, #1
 80002c2:	f7ff ff4b 	bl	800015c <readRegister>
 80002c6:	1b00      	subs	r0, r0, r4
 80002c8:	bf18      	it	ne
 80002ca:	2001      	movne	r0, #1
 80002cc:	bd38      	pop	{r3, r4, r5, pc}
 80002ce:	bf00      	nop
 80002d0:	40010c00 	.word	0x40010c00

080002d4 <setGain>:
 80002d4:	b538      	push	{r3, r4, r5, lr}
 80002d6:	4605      	mov	r5, r0
 80002d8:	200f      	movs	r0, #15
 80002da:	460c      	mov	r4, r1
 80002dc:	f7ff ff5c 	bl	8000198 <sendCommand>
 80002e0:	4629      	mov	r1, r5
 80002e2:	2003      	movs	r0, #3
 80002e4:	f7ff ff68 	bl	80001b8 <writeRegister>
 80002e8:	4d10      	ldr	r5, [pc, #64]	; (800032c <setGain+0x58>)
 80002ea:	2102      	movs	r1, #2
 80002ec:	4628      	mov	r0, r5
 80002ee:	f000 fc9b 	bl	8000c28 <HAL_GPIO_ReadPin>
 80002f2:	2800      	cmp	r0, #0
 80002f4:	d1f9      	bne.n	80002ea <setGain+0x16>
 80002f6:	f004 0107 	and.w	r1, r4, #7
 80002fa:	2002      	movs	r0, #2
 80002fc:	f7ff ff5c 	bl	80001b8 <writeRegister>
 8000300:	4c0a      	ldr	r4, [pc, #40]	; (800032c <setGain+0x58>)
 8000302:	2102      	movs	r1, #2
 8000304:	4620      	mov	r0, r4
 8000306:	f000 fc8f 	bl	8000c28 <HAL_GPIO_ReadPin>
 800030a:	2800      	cmp	r0, #0
 800030c:	d1f9      	bne.n	8000302 <setGain+0x2e>
 800030e:	20f0      	movs	r0, #240	; 0xf0
 8000310:	f7ff ff42 	bl	8000198 <sendCommand>
 8000314:	4c05      	ldr	r4, [pc, #20]	; (800032c <setGain+0x58>)
 8000316:	2102      	movs	r1, #2
 8000318:	4620      	mov	r0, r4
 800031a:	f000 fc85 	bl	8000c28 <HAL_GPIO_ReadPin>
 800031e:	2800      	cmp	r0, #0
 8000320:	d1f9      	bne.n	8000316 <setGain+0x42>
 8000322:	e8bd 4038 	ldmia.w	sp!, {r3, r4, r5, lr}
 8000326:	2003      	movs	r0, #3
 8000328:	f7ff bf36 	b.w	8000198 <sendCommand>
 800032c:	40010c00 	.word	0x40010c00

08000330 <concatenateToInt32>:
 8000330:	7843      	ldrb	r3, [r0, #1]
 8000332:	7802      	ldrb	r2, [r0, #0]
 8000334:	021b      	lsls	r3, r3, #8
 8000336:	7880      	ldrb	r0, [r0, #2]
 8000338:	eb03 4302 	add.w	r3, r3, r2, lsl #16
 800033c:	4418      	add	r0, r3
 800033e:	021b      	lsls	r3, r3, #8
 8000340:	bf48      	it	mi
 8000342:	f040 407f 	orrmi.w	r0, r0, #4278190080	; 0xff000000
 8000346:	4770      	bx	lr

08000348 <transmitArrayOverUSB>:
 8000348:	b580      	push	{r7, lr}
 800034a:	8843      	ldrh	r3, [r0, #2]
 800034c:	af00      	add	r7, sp, #0
 800034e:	f5ad 6dfb 	sub.w	sp, sp, #2008	; 0x7d8
 8000352:	f8ad 3002 	strh.w	r3, [sp, #2]
 8000356:	7903      	ldrb	r3, [r0, #4]
 8000358:	8802      	ldrh	r2, [r0, #0]
 800035a:	f88d 3004 	strb.w	r3, [sp, #4]
 800035e:	7943      	ldrb	r3, [r0, #5]
 8000360:	f8ad 2000 	strh.w	r2, [sp]
 8000364:	f100 0108 	add.w	r1, r0, #8
 8000368:	0092      	lsls	r2, r2, #2
 800036a:	f10d 0006 	add.w	r0, sp, #6
 800036e:	f88d 3005 	strb.w	r3, [sp, #5]
 8000372:	f003 ff5e 	bl	8004232 <memcpy>
 8000376:	f44f 61fb 	mov.w	r1, #2008	; 0x7d8
 800037a:	4668      	mov	r0, sp
 800037c:	f003 fbdc 	bl	8003b38 <CDC_Transmit_FS>
 8000380:	46bd      	mov	sp, r7
 8000382:	bd80      	pop	{r7, pc}

08000384 <SystemClock_Config>:
 8000384:	b530      	push	{r4, r5, lr}
 8000386:	2410      	movs	r4, #16
 8000388:	b095      	sub	sp, #84	; 0x54
 800038a:	4622      	mov	r2, r4
 800038c:	2100      	movs	r1, #0
 800038e:	a80c      	add	r0, sp, #48	; 0x30
 8000390:	f003 fed3 	bl	800413a <memset>
 8000394:	2214      	movs	r2, #20
 8000396:	2100      	movs	r1, #0
 8000398:	eb0d 0002 	add.w	r0, sp, r2
 800039c:	f003 fecd 	bl	800413a <memset>
 80003a0:	4622      	mov	r2, r4
 80003a2:	2100      	movs	r1, #0
 80003a4:	a801      	add	r0, sp, #4
 80003a6:	f003 fec8 	bl	800413a <memset>
 80003aa:	2502      	movs	r5, #2
 80003ac:	f44f 3380 	mov.w	r3, #65536	; 0x10000
 80003b0:	2209      	movs	r2, #9
 80003b2:	e9cd 5311 	strd	r5, r3, [sp, #68]	; 0x44
 80003b6:	e9cd 230a 	strd	r2, r3, [sp, #40]	; 0x28
 80003ba:	2201      	movs	r2, #1
 80003bc:	f44f 13e0 	mov.w	r3, #1835008	; 0x1c0000
 80003c0:	a80a      	add	r0, sp, #40	; 0x28
 80003c2:	920e      	str	r2, [sp, #56]	; 0x38
 80003c4:	9210      	str	r2, [sp, #64]	; 0x40
 80003c6:	9313      	str	r3, [sp, #76]	; 0x4c
 80003c8:	f001 fb0c 	bl	80019e4 <HAL_RCC_OscConfig>
 80003cc:	b108      	cbz	r0, 80003d2 <SystemClock_Config+0x4e>
 80003ce:	b672      	cpsid	i
 80003d0:	e7fe      	b.n	80003d0 <SystemClock_Config+0x4c>
 80003d2:	230f      	movs	r3, #15
 80003d4:	e9cd 3505 	strd	r3, r5, [sp, #20]
 80003d8:	f44f 6380 	mov.w	r3, #1024	; 0x400
 80003dc:	9007      	str	r0, [sp, #28]
 80003de:	e9cd 3008 	strd	r3, r0, [sp, #32]
 80003e2:	4629      	mov	r1, r5
 80003e4:	a805      	add	r0, sp, #20
 80003e6:	f001 fcbf 	bl	8001d68 <HAL_RCC_ClockConfig>
 80003ea:	b108      	cbz	r0, 80003f0 <SystemClock_Config+0x6c>
 80003ec:	b672      	cpsid	i
 80003ee:	e7fe      	b.n	80003ee <SystemClock_Config+0x6a>
 80003f0:	9004      	str	r0, [sp, #16]
 80003f2:	a801      	add	r0, sp, #4
 80003f4:	9401      	str	r4, [sp, #4]
 80003f6:	f001 fd53 	bl	8001ea0 <HAL_RCCEx_PeriphCLKConfig>
 80003fa:	b108      	cbz	r0, 8000400 <SystemClock_Config+0x7c>
 80003fc:	b672      	cpsid	i
 80003fe:	e7fe      	b.n	80003fe <SystemClock_Config+0x7a>
 8000400:	b015      	add	sp, #84	; 0x54
 8000402:	bd30      	pop	{r4, r5, pc}

08000404 <main>:
 8000404:	e92d 47f0 	stmdb	sp!, {r4, r5, r6, r7, r8, r9, sl, lr}
 8000408:	b088      	sub	sp, #32
 800040a:	f000 fa87 	bl	800091c <HAL_Init>
 800040e:	f7ff ffb9 	bl	8000384 <SystemClock_Config>
 8000412:	4b97      	ldr	r3, [pc, #604]	; (8000670 <main+0x26c>)
 8000414:	f04f 0c10 	mov.w	ip, #16
 8000418:	699a      	ldr	r2, [r3, #24]
 800041a:	2501      	movs	r5, #1
 800041c:	f042 0220 	orr.w	r2, r2, #32
 8000420:	619a      	str	r2, [r3, #24]
 8000422:	699a      	ldr	r2, [r3, #24]
 8000424:	2603      	movs	r6, #3
 8000426:	f002 0220 	and.w	r2, r2, #32
 800042a:	9201      	str	r2, [sp, #4]
 800042c:	9a01      	ldr	r2, [sp, #4]
 800042e:	699a      	ldr	r2, [r3, #24]
 8000430:	4890      	ldr	r0, [pc, #576]	; (8000674 <main+0x270>)
 8000432:	f042 0204 	orr.w	r2, r2, #4
 8000436:	619a      	str	r2, [r3, #24]
 8000438:	699a      	ldr	r2, [r3, #24]
 800043a:	a904      	add	r1, sp, #16
 800043c:	f002 0204 	and.w	r2, r2, #4
 8000440:	9202      	str	r2, [sp, #8]
 8000442:	9a02      	ldr	r2, [sp, #8]
 8000444:	699a      	ldr	r2, [r3, #24]
 8000446:	2400      	movs	r4, #0
 8000448:	f042 0208 	orr.w	r2, r2, #8
 800044c:	619a      	str	r2, [r3, #24]
 800044e:	699b      	ldr	r3, [r3, #24]
 8000450:	e9cd 5606 	strd	r5, r6, [sp, #24]
 8000454:	f003 0308 	and.w	r3, r3, #8
 8000458:	9303      	str	r3, [sp, #12]
 800045a:	9b03      	ldr	r3, [sp, #12]
 800045c:	2312      	movs	r3, #18
 800045e:	e9cd c304 	strd	ip, r3, [sp, #16]
 8000462:	f000 fb07 	bl	8000a74 <HAL_GPIO_Init>
 8000466:	2340      	movs	r3, #64	; 0x40
 8000468:	4882      	ldr	r0, [pc, #520]	; (8000674 <main+0x270>)
 800046a:	a904      	add	r1, sp, #16
 800046c:	e9cd 3404 	strd	r3, r4, [sp, #16]
 8000470:	e9cd 5606 	strd	r5, r6, [sp, #24]
 8000474:	f000 fafe 	bl	8000a74 <HAL_GPIO_Init>
 8000478:	4b7f      	ldr	r3, [pc, #508]	; (8000678 <main+0x274>)
 800047a:	4880      	ldr	r0, [pc, #512]	; (800067c <main+0x278>)
 800047c:	a904      	add	r1, sp, #16
 800047e:	e9cd 3405 	strd	r3, r4, [sp, #20]
 8000482:	9504      	str	r5, [sp, #16]
 8000484:	f000 faf6 	bl	8000a74 <HAL_GPIO_Init>
 8000488:	462a      	mov	r2, r5
 800048a:	f44f 5180 	mov.w	r1, #4096	; 0x1000
 800048e:	487b      	ldr	r0, [pc, #492]	; (800067c <main+0x278>)
 8000490:	f000 fbd0 	bl	8000c34 <HAL_GPIO_WritePin>
 8000494:	4622      	mov	r2, r4
 8000496:	f44f 5100 	mov.w	r1, #8192	; 0x2000
 800049a:	4878      	ldr	r0, [pc, #480]	; (800067c <main+0x278>)
 800049c:	f000 fbca 	bl	8000c34 <HAL_GPIO_WritePin>
 80004a0:	4622      	mov	r2, r4
 80004a2:	f44f 4100 	mov.w	r1, #32768	; 0x8000
 80004a6:	4875      	ldr	r0, [pc, #468]	; (800067c <main+0x278>)
 80004a8:	f000 fbc4 	bl	8000c34 <HAL_GPIO_WritePin>
 80004ac:	f44f 4330 	mov.w	r3, #45056	; 0xb000
 80004b0:	e9cd 3504 	strd	r3, r5, [sp, #16]
 80004b4:	2302      	movs	r3, #2
 80004b6:	4871      	ldr	r0, [pc, #452]	; (800067c <main+0x278>)
 80004b8:	a904      	add	r1, sp, #16
 80004ba:	9307      	str	r3, [sp, #28]
 80004bc:	9406      	str	r4, [sp, #24]
 80004be:	f000 fad9 	bl	8000a74 <HAL_GPIO_Init>
 80004c2:	4622      	mov	r2, r4
 80004c4:	f44f 5180 	mov.w	r1, #4096	; 0x1000
 80004c8:	486c      	ldr	r0, [pc, #432]	; (800067c <main+0x278>)
 80004ca:	f000 fbb3 	bl	8000c34 <HAL_GPIO_WritePin>
 80004ce:	486c      	ldr	r0, [pc, #432]	; (8000680 <main+0x27c>)
 80004d0:	4b6c      	ldr	r3, [pc, #432]	; (8000684 <main+0x280>)
 80004d2:	e9c0 3600 	strd	r3, r6, [r0]
 80004d6:	f640 73ff 	movw	r3, #4095	; 0xfff
 80004da:	6083      	str	r3, [r0, #8]
 80004dc:	f000 fbc4 	bl	8000c68 <HAL_IWDG_Init>
 80004e0:	4604      	mov	r4, r0
 80004e2:	b108      	cbz	r0, 80004e8 <main+0xe4>
 80004e4:	b672      	cpsid	i
 80004e6:	e7fe      	b.n	80004e6 <main+0xe2>
 80004e8:	f003 fad4 	bl	8003a94 <MX_USB_DEVICE_Init>
 80004ec:	f44f 7382 	mov.w	r3, #260	; 0x104
 80004f0:	4865      	ldr	r0, [pc, #404]	; (8000688 <main+0x284>)
 80004f2:	4e66      	ldr	r6, [pc, #408]	; (800068c <main+0x288>)
 80004f4:	f44f 2780 	mov.w	r7, #262144	; 0x40000
 80004f8:	e9c0 6300 	strd	r6, r3, [r0]
 80004fc:	2328      	movs	r3, #40	; 0x28
 80004fe:	e9c0 7306 	strd	r7, r3, [r0, #24]
 8000502:	230a      	movs	r3, #10
 8000504:	e9c0 4402 	strd	r4, r4, [r0, #8]
 8000508:	e9c0 4504 	strd	r4, r5, [r0, #16]
 800050c:	e9c0 4408 	strd	r4, r4, [r0, #32]
 8000510:	6284      	str	r4, [r0, #40]	; 0x28
 8000512:	62c3      	str	r3, [r0, #44]	; 0x2c
 8000514:	f001 fdc9 	bl	80020aa <HAL_SPI_Init>
 8000518:	b108      	cbz	r0, 800051e <main+0x11a>
 800051a:	b672      	cpsid	i
 800051c:	e7fe      	b.n	800051c <main+0x118>
 800051e:	f7ff fe61 	bl	80001e4 <setupADS1256>
 8000522:	495b      	ldr	r1, [pc, #364]	; (8000690 <main+0x28c>)
 8000524:	4602      	mov	r2, r0
 8000526:	485b      	ldr	r0, [pc, #364]	; (8000694 <main+0x290>)
 8000528:	f003 fda4 	bl	8004074 <siprintf>
 800052c:	462a      	mov	r2, r5
 800052e:	f44f 5180 	mov.w	r1, #4096	; 0x1000
 8000532:	4852      	ldr	r0, [pc, #328]	; (800067c <main+0x278>)
 8000534:	f000 fb7e 	bl	8000c34 <HAL_GPIO_WritePin>
 8000538:	f000 fa0e 	bl	8000958 <HAL_GetTick>
 800053c:	4d56      	ldr	r5, [pc, #344]	; (8000698 <main+0x294>)
 800053e:	4e57      	ldr	r6, [pc, #348]	; (800069c <main+0x298>)
 8000540:	4c4e      	ldr	r4, [pc, #312]	; (800067c <main+0x278>)
 8000542:	4f54      	ldr	r7, [pc, #336]	; (8000694 <main+0x290>)
 8000544:	6028      	str	r0, [r5, #0]
 8000546:	7833      	ldrb	r3, [r6, #0]
 8000548:	2b00      	cmp	r3, #0
 800054a:	d16e      	bne.n	800062a <main+0x226>
 800054c:	68e0      	ldr	r0, [r4, #12]
 800054e:	f410 5000 	ands.w	r0, r0, #8192	; 0x2000
 8000552:	d11c      	bne.n	800058e <main+0x18a>
 8000554:	f04f 31ff 	mov.w	r1, #4294967295
 8000558:	f7ff fe9a 	bl	8000290 <setChannel>
 800055c:	4601      	mov	r1, r0
 800055e:	b9b0      	cbnz	r0, 800058e <main+0x18a>
 8000560:	2063      	movs	r0, #99	; 0x63
 8000562:	f7ff feb7 	bl	80002d4 <setGain>
 8000566:	4b4e      	ldr	r3, [pc, #312]	; (80006a0 <main+0x29c>)
 8000568:	4a4e      	ldr	r2, [pc, #312]	; (80006a4 <main+0x2a0>)
 800056a:	2105      	movs	r1, #5
 800056c:	601a      	str	r2, [r3, #0]
 800056e:	f44f 427f 	mov.w	r2, #65280	; 0xff00
 8000572:	2006      	movs	r0, #6
 8000574:	809a      	strh	r2, [r3, #4]
 8000576:	2207      	movs	r2, #7
 8000578:	f000 fa18 	bl	80009ac <HAL_NVIC_SetPriority>
 800057c:	2006      	movs	r0, #6
 800057e:	f000 fa45 	bl	8000a0c <HAL_NVIC_EnableIRQ>
 8000582:	2201      	movs	r2, #1
 8000584:	f44f 5100 	mov.w	r1, #8192	; 0x2000
 8000588:	4620      	mov	r0, r4
 800058a:	f000 fb53 	bl	8000c34 <HAL_GPIO_WritePin>
 800058e:	4b46      	ldr	r3, [pc, #280]	; (80006a8 <main+0x2a4>)
 8000590:	881a      	ldrh	r2, [r3, #0]
 8000592:	b14a      	cbz	r2, 80005a8 <main+0x1a4>
 8000594:	2200      	movs	r2, #0
 8000596:	4842      	ldr	r0, [pc, #264]	; (80006a0 <main+0x29c>)
 8000598:	801a      	strh	r2, [r3, #0]
 800059a:	f7ff fed5 	bl	8000348 <transmitArrayOverUSB>
 800059e:	f44f 4100 	mov.w	r1, #32768	; 0x8000
 80005a2:	4620      	mov	r0, r4
 80005a4:	f000 fb4b 	bl	8000c3e <HAL_GPIO_TogglePin>
 80005a8:	f8df a100 	ldr.w	sl, [pc, #256]	; 80006ac <main+0x2a8>
 80005ac:	f8df 8100 	ldr.w	r8, [pc, #256]	; 80006b0 <main+0x2ac>
 80005b0:	f89a 3000 	ldrb.w	r3, [sl]
 80005b4:	f8df 90fc 	ldr.w	r9, [pc, #252]	; 80006b4 <main+0x2b0>
 80005b8:	b953      	cbnz	r3, 80005d0 <main+0x1cc>
 80005ba:	f000 f9cd 	bl	8000958 <HAL_GetTick>
 80005be:	f8c8 0000 	str.w	r0, [r8]
 80005c2:	f000 f9c9 	bl	8000958 <HAL_GetTick>
 80005c6:	2301      	movs	r3, #1
 80005c8:	f8c9 0000 	str.w	r0, [r9]
 80005cc:	f88a 3000 	strb.w	r3, [sl]
 80005d0:	f000 f9c2 	bl	8000958 <HAL_GetTick>
 80005d4:	f8d8 3000 	ldr.w	r3, [r8]
 80005d8:	1ac0      	subs	r0, r0, r3
 80005da:	f5b0 7f7a 	cmp.w	r0, #1000	; 0x3e8
 80005de:	d10c      	bne.n	80005fa <main+0x1f6>
 80005e0:	68e3      	ldr	r3, [r4, #12]
 80005e2:	04d9      	lsls	r1, r3, #19
 80005e4:	d509      	bpl.n	80005fa <main+0x1f6>
 80005e6:	f000 f9b7 	bl	8000958 <HAL_GetTick>
 80005ea:	2200      	movs	r2, #0
 80005ec:	f8c9 0000 	str.w	r0, [r9]
 80005f0:	f44f 5180 	mov.w	r1, #4096	; 0x1000
 80005f4:	4620      	mov	r0, r4
 80005f6:	f000 fb1d 	bl	8000c34 <HAL_GPIO_WritePin>
 80005fa:	f000 f9ad 	bl	8000958 <HAL_GetTick>
 80005fe:	f8d9 3000 	ldr.w	r3, [r9]
 8000602:	1ac0      	subs	r0, r0, r3
 8000604:	2832      	cmp	r0, #50	; 0x32
 8000606:	d10c      	bne.n	8000622 <main+0x21e>
 8000608:	68e3      	ldr	r3, [r4, #12]
 800060a:	04da      	lsls	r2, r3, #19
 800060c:	d409      	bmi.n	8000622 <main+0x21e>
 800060e:	f000 f9a3 	bl	8000958 <HAL_GetTick>
 8000612:	f8c8 0000 	str.w	r0, [r8]
 8000616:	2201      	movs	r2, #1
 8000618:	f44f 5180 	mov.w	r1, #4096	; 0x1000
 800061c:	4620      	mov	r0, r4
 800061e:	f000 fb09 	bl	8000c34 <HAL_GPIO_WritePin>
 8000622:	4817      	ldr	r0, [pc, #92]	; (8000680 <main+0x27c>)
 8000624:	f000 fb47 	bl	8000cb6 <HAL_IWDG_Refresh>
 8000628:	e78d      	b.n	8000546 <main+0x142>
 800062a:	68e3      	ldr	r3, [r4, #12]
 800062c:	049b      	lsls	r3, r3, #18
 800062e:	d412      	bmi.n	8000656 <main+0x252>
 8000630:	f000 f992 	bl	8000958 <HAL_GetTick>
 8000634:	682b      	ldr	r3, [r5, #0]
 8000636:	1ac0      	subs	r0, r0, r3
 8000638:	f5b0 7f7a 	cmp.w	r0, #1000	; 0x3e8
 800063c:	d9eb      	bls.n	8000616 <main+0x212>
 800063e:	4638      	mov	r0, r7
 8000640:	f7ff fd84 	bl	800014c <strlen>
 8000644:	b281      	uxth	r1, r0
 8000646:	4638      	mov	r0, r7
 8000648:	f003 fa76 	bl	8003b38 <CDC_Transmit_FS>
 800064c:	7030      	strb	r0, [r6, #0]
 800064e:	f000 f983 	bl	8000958 <HAL_GetTick>
 8000652:	6028      	str	r0, [r5, #0]
 8000654:	e7df      	b.n	8000616 <main+0x212>
 8000656:	2200      	movs	r2, #0
 8000658:	f44f 5100 	mov.w	r1, #8192	; 0x2000
 800065c:	4620      	mov	r0, r4
 800065e:	f000 fae9 	bl	8000c34 <HAL_GPIO_WritePin>
 8000662:	2006      	movs	r0, #6
 8000664:	f000 f9e0 	bl	8000a28 <HAL_NVIC_DisableIRQ>
 8000668:	f7ff fdfc 	bl	8000264 <stopSampling>
 800066c:	e7d3      	b.n	8000616 <main+0x212>
 800066e:	bf00      	nop
 8000670:	40021000 	.word	0x40021000
 8000674:	40010800 	.word	0x40010800
 8000678:	10210000 	.word	0x10210000
 800067c:	40010c00 	.word	0x40010c00
 8000680:	200001f8 	.word	0x200001f8
 8000684:	40003000 	.word	0x40003000
 8000688:	20000204 	.word	0x20000204
 800068c:	40013000 	.word	0x40013000
 8000690:	08005178 	.word	0x08005178
 8000694:	2000026c 	.word	0x2000026c
 8000698:	20000260 	.word	0x20000260
 800069c:	20000000 	.word	0x20000000
 80006a0:	20000370 	.word	0x20000370
 80006a4:	003201f4 	.word	0x003201f4
 80006a8:	20000b48 	.word	0x20000b48
 80006ac:	2000025c 	.word	0x2000025c
 80006b0:	20000268 	.word	0x20000268
 80006b4:	20000264 	.word	0x20000264

080006b8 <Error_Handler>:
 80006b8:	b672      	cpsid	i
 80006ba:	e7fe      	b.n	80006ba <Error_Handler+0x2>

080006bc <HAL_MspInit>:
 80006bc:	4b0e      	ldr	r3, [pc, #56]	; (80006f8 <HAL_MspInit+0x3c>)
 80006be:	b082      	sub	sp, #8
 80006c0:	699a      	ldr	r2, [r3, #24]
 80006c2:	f042 0201 	orr.w	r2, r2, #1
 80006c6:	619a      	str	r2, [r3, #24]
 80006c8:	699a      	ldr	r2, [r3, #24]
 80006ca:	f002 0201 	and.w	r2, r2, #1
 80006ce:	9200      	str	r2, [sp, #0]
 80006d0:	9a00      	ldr	r2, [sp, #0]
 80006d2:	69da      	ldr	r2, [r3, #28]
 80006d4:	f042 5280 	orr.w	r2, r2, #268435456	; 0x10000000
 80006d8:	61da      	str	r2, [r3, #28]
 80006da:	69db      	ldr	r3, [r3, #28]
 80006dc:	4a07      	ldr	r2, [pc, #28]	; (80006fc <HAL_MspInit+0x40>)
 80006de:	f003 5380 	and.w	r3, r3, #268435456	; 0x10000000
 80006e2:	9301      	str	r3, [sp, #4]
 80006e4:	9b01      	ldr	r3, [sp, #4]
 80006e6:	6853      	ldr	r3, [r2, #4]
 80006e8:	f023 63e0 	bic.w	r3, r3, #117440512	; 0x7000000
 80006ec:	f043 7380 	orr.w	r3, r3, #16777216	; 0x1000000
 80006f0:	6053      	str	r3, [r2, #4]
 80006f2:	b002      	add	sp, #8
 80006f4:	4770      	bx	lr
 80006f6:	bf00      	nop
 80006f8:	40021000 	.word	0x40021000
 80006fc:	40010000 	.word	0x40010000

08000700 <HAL_SPI_MspInit>:
 8000700:	b510      	push	{r4, lr}
 8000702:	4604      	mov	r4, r0
 8000704:	b086      	sub	sp, #24
 8000706:	2210      	movs	r2, #16
 8000708:	2100      	movs	r1, #0
 800070a:	a802      	add	r0, sp, #8
 800070c:	f003 fd15 	bl	800413a <memset>
 8000710:	6822      	ldr	r2, [r4, #0]
 8000712:	4b16      	ldr	r3, [pc, #88]	; (800076c <HAL_SPI_MspInit+0x6c>)
 8000714:	429a      	cmp	r2, r3
 8000716:	d126      	bne.n	8000766 <HAL_SPI_MspInit+0x66>
 8000718:	f503 4360 	add.w	r3, r3, #57344	; 0xe000
 800071c:	699a      	ldr	r2, [r3, #24]
 800071e:	4814      	ldr	r0, [pc, #80]	; (8000770 <HAL_SPI_MspInit+0x70>)
 8000720:	f442 5280 	orr.w	r2, r2, #4096	; 0x1000
 8000724:	619a      	str	r2, [r3, #24]
 8000726:	699a      	ldr	r2, [r3, #24]
 8000728:	a902      	add	r1, sp, #8
 800072a:	f402 5280 	and.w	r2, r2, #4096	; 0x1000
 800072e:	9200      	str	r2, [sp, #0]
 8000730:	9a00      	ldr	r2, [sp, #0]
 8000732:	699a      	ldr	r2, [r3, #24]
 8000734:	f042 0204 	orr.w	r2, r2, #4
 8000738:	619a      	str	r2, [r3, #24]
 800073a:	699b      	ldr	r3, [r3, #24]
 800073c:	22b0      	movs	r2, #176	; 0xb0
 800073e:	f003 0304 	and.w	r3, r3, #4
 8000742:	9301      	str	r3, [sp, #4]
 8000744:	9b01      	ldr	r3, [sp, #4]
 8000746:	2302      	movs	r3, #2
 8000748:	e9cd 2302 	strd	r2, r3, [sp, #8]
 800074c:	2303      	movs	r3, #3
 800074e:	9305      	str	r3, [sp, #20]
 8000750:	f000 f990 	bl	8000a74 <HAL_GPIO_Init>
 8000754:	2140      	movs	r1, #64	; 0x40
 8000756:	2300      	movs	r3, #0
 8000758:	4805      	ldr	r0, [pc, #20]	; (8000770 <HAL_SPI_MspInit+0x70>)
 800075a:	e9cd 1302 	strd	r1, r3, [sp, #8]
 800075e:	a902      	add	r1, sp, #8
 8000760:	9304      	str	r3, [sp, #16]
 8000762:	f000 f987 	bl	8000a74 <HAL_GPIO_Init>
 8000766:	b006      	add	sp, #24
 8000768:	bd10      	pop	{r4, pc}
 800076a:	bf00      	nop
 800076c:	40013000 	.word	0x40013000
 8000770:	40010800 	.word	0x40010800

08000774 <EXTI0_IRQHandler>:
 8000774:	2001      	movs	r0, #1
 8000776:	f000 ba6b 	b.w	8000c50 <HAL_GPIO_EXTI_IRQHandler>
	...

0800077c <HAL_GPIO_EXTI_Callback>:
 800077c:	2801      	cmp	r0, #1
 800077e:	b538      	push	{r3, r4, r5, lr}
 8000780:	d11d      	bne.n	80007be <HAL_GPIO_EXTI_Callback+0x42>
 8000782:	4c0f      	ldr	r4, [pc, #60]	; (80007c0 <HAL_GPIO_EXTI_Callback+0x44>)
 8000784:	f04f 33ff 	mov.w	r3, #4294967295
 8000788:	2203      	movs	r2, #3
 800078a:	490e      	ldr	r1, [pc, #56]	; (80007c4 <HAL_GPIO_EXTI_Callback+0x48>)
 800078c:	480e      	ldr	r0, [pc, #56]	; (80007c8 <HAL_GPIO_EXTI_Callback+0x4c>)
 800078e:	f001 fe8d 	bl	80024ac <HAL_SPI_Receive>
 8000792:	480c      	ldr	r0, [pc, #48]	; (80007c4 <HAL_GPIO_EXTI_Callback+0x48>)
 8000794:	6825      	ldr	r5, [r4, #0]
 8000796:	f7ff fdcb 	bl	8000330 <concatenateToInt32>
 800079a:	6823      	ldr	r3, [r4, #0]
 800079c:	4a0b      	ldr	r2, [pc, #44]	; (80007cc <HAL_GPIO_EXTI_Callback+0x50>)
 800079e:	3301      	adds	r3, #1
 80007a0:	f5b3 7ffa 	cmp.w	r3, #500	; 0x1f4
 80007a4:	bf28      	it	cs
 80007a6:	2300      	movcs	r3, #0
 80007a8:	f105 0502 	add.w	r5, r5, #2
 80007ac:	f842 0025 	str.w	r0, [r2, r5, lsl #2]
 80007b0:	bf23      	ittte	cs
 80007b2:	6023      	strcs	r3, [r4, #0]
 80007b4:	8812      	ldrhcs	r2, [r2, #0]
 80007b6:	4b06      	ldrcs	r3, [pc, #24]	; (80007d0 <HAL_GPIO_EXTI_Callback+0x54>)
 80007b8:	6023      	strcc	r3, [r4, #0]
 80007ba:	bf28      	it	cs
 80007bc:	801a      	strhcs	r2, [r3, #0]
 80007be:	bd38      	pop	{r3, r4, r5, pc}
 80007c0:	20000b4c 	.word	0x20000b4c
 80007c4:	2000036c 	.word	0x2000036c
 80007c8:	20000204 	.word	0x20000204
 80007cc:	20000370 	.word	0x20000370
 80007d0:	20000b48 	.word	0x20000b48

080007d4 <NMI_Handler>:
 80007d4:	e7fe      	b.n	80007d4 <NMI_Handler>

080007d6 <HardFault_Handler>:
 80007d6:	e7fe      	b.n	80007d6 <HardFault_Handler>

080007d8 <MemManage_Handler>:
 80007d8:	e7fe      	b.n	80007d8 <MemManage_Handler>

080007da <BusFault_Handler>:
 80007da:	e7fe      	b.n	80007da <BusFault_Handler>

080007dc <UsageFault_Handler>:
 80007dc:	e7fe      	b.n	80007dc <UsageFault_Handler>

080007de <SVC_Handler>:
 80007de:	4770      	bx	lr

080007e0 <DebugMon_Handler>:
 80007e0:	4770      	bx	lr

080007e2 <PendSV_Handler>:
 80007e2:	4770      	bx	lr

080007e4 <SysTick_Handler>:
 80007e4:	f000 b8ac 	b.w	8000940 <HAL_IncTick>

080007e8 <USB_LP_CAN1_RX0_IRQHandler>:
 80007e8:	4801      	ldr	r0, [pc, #4]	; (80007f0 <USB_LP_CAN1_RX0_IRQHandler+0x8>)
 80007ea:	f000 bb0f 	b.w	8000e0c <HAL_PCD_IRQHandler>
 80007ee:	bf00      	nop
 80007f0:	20001820 	.word	0x20001820

080007f4 <_read>:
 80007f4:	b570      	push	{r4, r5, r6, lr}
 80007f6:	460d      	mov	r5, r1
 80007f8:	4614      	mov	r4, r2
 80007fa:	460e      	mov	r6, r1
 80007fc:	1b73      	subs	r3, r6, r5
 80007fe:	429c      	cmp	r4, r3
 8000800:	dc01      	bgt.n	8000806 <_read+0x12>
 8000802:	4620      	mov	r0, r4
 8000804:	bd70      	pop	{r4, r5, r6, pc}
 8000806:	f3af 8000 	nop.w
 800080a:	f806 0b01 	strb.w	r0, [r6], #1
 800080e:	e7f5      	b.n	80007fc <_read+0x8>

08000810 <_write>:
 8000810:	b570      	push	{r4, r5, r6, lr}
 8000812:	460d      	mov	r5, r1
 8000814:	4614      	mov	r4, r2
 8000816:	460e      	mov	r6, r1
 8000818:	1b73      	subs	r3, r6, r5
 800081a:	429c      	cmp	r4, r3
 800081c:	dc01      	bgt.n	8000822 <_write+0x12>
 800081e:	4620      	mov	r0, r4
 8000820:	bd70      	pop	{r4, r5, r6, pc}
 8000822:	f816 0b01 	ldrb.w	r0, [r6], #1
 8000826:	f3af 8000 	nop.w
 800082a:	e7f5      	b.n	8000818 <_write+0x8>

0800082c <_close>:
 800082c:	f04f 30ff 	mov.w	r0, #4294967295
 8000830:	4770      	bx	lr

08000832 <_fstat>:
 8000832:	f44f 5300 	mov.w	r3, #8192	; 0x2000
 8000836:	2000      	movs	r0, #0
 8000838:	604b      	str	r3, [r1, #4]
 800083a:	4770      	bx	lr

0800083c <_isatty>:
 800083c:	2001      	movs	r0, #1
 800083e:	4770      	bx	lr

08000840 <_lseek>:
 8000840:	2000      	movs	r0, #0
 8000842:	4770      	bx	lr

08000844 <_sbrk>:
 8000844:	4a0b      	ldr	r2, [pc, #44]	; (8000874 <_sbrk+0x30>)
 8000846:	4603      	mov	r3, r0
 8000848:	6811      	ldr	r1, [r2, #0]
 800084a:	b510      	push	{r4, lr}
 800084c:	b909      	cbnz	r1, 8000852 <_sbrk+0xe>
 800084e:	490a      	ldr	r1, [pc, #40]	; (8000878 <_sbrk+0x34>)
 8000850:	6011      	str	r1, [r2, #0]
 8000852:	6810      	ldr	r0, [r2, #0]
 8000854:	4909      	ldr	r1, [pc, #36]	; (800087c <_sbrk+0x38>)
 8000856:	4c0a      	ldr	r4, [pc, #40]	; (8000880 <_sbrk+0x3c>)
 8000858:	4403      	add	r3, r0
 800085a:	1b09      	subs	r1, r1, r4
 800085c:	428b      	cmp	r3, r1
 800085e:	d906      	bls.n	800086e <_sbrk+0x2a>
 8000860:	f003 fcba 	bl	80041d8 <__errno>
 8000864:	230c      	movs	r3, #12
 8000866:	6003      	str	r3, [r0, #0]
 8000868:	f04f 30ff 	mov.w	r0, #4294967295
 800086c:	bd10      	pop	{r4, pc}
 800086e:	6013      	str	r3, [r2, #0]
 8000870:	e7fc      	b.n	800086c <_sbrk+0x28>
 8000872:	bf00      	nop
 8000874:	20000b50 	.word	0x20000b50
 8000878:	20001e80 	.word	0x20001e80
 800087c:	20005000 	.word	0x20005000
 8000880:	00000400 	.word	0x00000400

08000884 <SystemInit>:
 8000884:	4770      	bx	lr
	...

08000888 <Reset_Handler>:
 8000888:	f7ff fffc 	bl	8000884 <SystemInit>
 800088c:	480b      	ldr	r0, [pc, #44]	; (80008bc <LoopFillZerobss+0xe>)
 800088e:	490c      	ldr	r1, [pc, #48]	; (80008c0 <LoopFillZerobss+0x12>)
 8000890:	4a0c      	ldr	r2, [pc, #48]	; (80008c4 <LoopFillZerobss+0x16>)
 8000892:	2300      	movs	r3, #0
 8000894:	e002      	b.n	800089c <LoopCopyDataInit>

08000896 <CopyDataInit>:
 8000896:	58d4      	ldr	r4, [r2, r3]
 8000898:	50c4      	str	r4, [r0, r3]
 800089a:	3304      	adds	r3, #4

0800089c <LoopCopyDataInit>:
 800089c:	18c4      	adds	r4, r0, r3
 800089e:	428c      	cmp	r4, r1
 80008a0:	d3f9      	bcc.n	8000896 <CopyDataInit>
 80008a2:	4a09      	ldr	r2, [pc, #36]	; (80008c8 <LoopFillZerobss+0x1a>)
 80008a4:	4c09      	ldr	r4, [pc, #36]	; (80008cc <LoopFillZerobss+0x1e>)
 80008a6:	2300      	movs	r3, #0
 80008a8:	e001      	b.n	80008ae <LoopFillZerobss>

080008aa <FillZerobss>:
 80008aa:	6013      	str	r3, [r2, #0]
 80008ac:	3204      	adds	r2, #4

080008ae <LoopFillZerobss>:
 80008ae:	42a2      	cmp	r2, r4
 80008b0:	d3fb      	bcc.n	80008aa <FillZerobss>
 80008b2:	f003 fc97 	bl	80041e4 <__libc_init_array>
 80008b6:	f7ff fda5 	bl	8000404 <main>
 80008ba:	4770      	bx	lr
 80008bc:	20000000 	.word	0x20000000
 80008c0:	200001dc 	.word	0x200001dc
 80008c4:	0800528c 	.word	0x0800528c
 80008c8:	200001dc 	.word	0x200001dc
 80008cc:	20001e7c 	.word	0x20001e7c

080008d0 <ADC1_2_IRQHandler>:
 80008d0:	e7fe      	b.n	80008d0 <ADC1_2_IRQHandler>
	...

080008d4 <HAL_InitTick>:
 80008d4:	b538      	push	{r3, r4, r5, lr}
 80008d6:	4b0e      	ldr	r3, [pc, #56]	; (8000910 <HAL_InitTick+0x3c>)
 80008d8:	4605      	mov	r5, r0
 80008da:	781a      	ldrb	r2, [r3, #0]
 80008dc:	f44f 737a 	mov.w	r3, #1000	; 0x3e8
 80008e0:	fbb3 f3f2 	udiv	r3, r3, r2
 80008e4:	4a0b      	ldr	r2, [pc, #44]	; (8000914 <HAL_InitTick+0x40>)
 80008e6:	6810      	ldr	r0, [r2, #0]
 80008e8:	fbb0 f0f3 	udiv	r0, r0, r3
 80008ec:	f000 f8ae 	bl	8000a4c <HAL_SYSTICK_Config>
 80008f0:	4604      	mov	r4, r0
 80008f2:	b958      	cbnz	r0, 800090c <HAL_InitTick+0x38>
 80008f4:	2d0f      	cmp	r5, #15
 80008f6:	d809      	bhi.n	800090c <HAL_InitTick+0x38>
 80008f8:	4602      	mov	r2, r0
 80008fa:	4629      	mov	r1, r5
 80008fc:	f04f 30ff 	mov.w	r0, #4294967295
 8000900:	f000 f854 	bl	80009ac <HAL_NVIC_SetPriority>
 8000904:	4620      	mov	r0, r4
 8000906:	4b04      	ldr	r3, [pc, #16]	; (8000918 <HAL_InitTick+0x44>)
 8000908:	601d      	str	r5, [r3, #0]
 800090a:	bd38      	pop	{r3, r4, r5, pc}
 800090c:	2001      	movs	r0, #1
 800090e:	e7fc      	b.n	800090a <HAL_InitTick+0x36>
 8000910:	20000008 	.word	0x20000008
 8000914:	20000004 	.word	0x20000004
 8000918:	2000000c 	.word	0x2000000c

0800091c <HAL_Init>:
 800091c:	4a07      	ldr	r2, [pc, #28]	; (800093c <HAL_Init+0x20>)
 800091e:	b508      	push	{r3, lr}
 8000920:	6813      	ldr	r3, [r2, #0]
 8000922:	2003      	movs	r0, #3
 8000924:	f043 0310 	orr.w	r3, r3, #16
 8000928:	6013      	str	r3, [r2, #0]
 800092a:	f000 f82d 	bl	8000988 <HAL_NVIC_SetPriorityGrouping>
 800092e:	200f      	movs	r0, #15
 8000930:	f7ff ffd0 	bl	80008d4 <HAL_InitTick>
 8000934:	f7ff fec2 	bl	80006bc <HAL_MspInit>
 8000938:	2000      	movs	r0, #0
 800093a:	bd08      	pop	{r3, pc}
 800093c:	40022000 	.word	0x40022000

08000940 <HAL_IncTick>:
 8000940:	4a03      	ldr	r2, [pc, #12]	; (8000950 <HAL_IncTick+0x10>)
 8000942:	4b04      	ldr	r3, [pc, #16]	; (8000954 <HAL_IncTick+0x14>)
 8000944:	6811      	ldr	r1, [r2, #0]
 8000946:	781b      	ldrb	r3, [r3, #0]
 8000948:	440b      	add	r3, r1
 800094a:	6013      	str	r3, [r2, #0]
 800094c:	4770      	bx	lr
 800094e:	bf00      	nop
 8000950:	20000b54 	.word	0x20000b54
 8000954:	20000008 	.word	0x20000008

08000958 <HAL_GetTick>:
 8000958:	4b01      	ldr	r3, [pc, #4]	; (8000960 <HAL_GetTick+0x8>)
 800095a:	6818      	ldr	r0, [r3, #0]
 800095c:	4770      	bx	lr
 800095e:	bf00      	nop
 8000960:	20000b54 	.word	0x20000b54

08000964 <HAL_Delay>:
 8000964:	b538      	push	{r3, r4, r5, lr}
 8000966:	4604      	mov	r4, r0
 8000968:	f7ff fff6 	bl	8000958 <HAL_GetTick>
 800096c:	4605      	mov	r5, r0
 800096e:	1c63      	adds	r3, r4, #1
 8000970:	bf1e      	ittt	ne
 8000972:	4b04      	ldrne	r3, [pc, #16]	; (8000984 <HAL_Delay+0x20>)
 8000974:	781b      	ldrbne	r3, [r3, #0]
 8000976:	18e4      	addne	r4, r4, r3
 8000978:	f7ff ffee 	bl	8000958 <HAL_GetTick>
 800097c:	1b43      	subs	r3, r0, r5
 800097e:	42a3      	cmp	r3, r4
 8000980:	d3fa      	bcc.n	8000978 <HAL_Delay+0x14>
 8000982:	bd38      	pop	{r3, r4, r5, pc}
 8000984:	20000008 	.word	0x20000008

08000988 <HAL_NVIC_SetPriorityGrouping>:
 8000988:	4907      	ldr	r1, [pc, #28]	; (80009a8 <HAL_NVIC_SetPriorityGrouping+0x20>)
 800098a:	0203      	lsls	r3, r0, #8
 800098c:	68ca      	ldr	r2, [r1, #12]
 800098e:	f403 63e0 	and.w	r3, r3, #1792	; 0x700
 8000992:	f422 62e0 	bic.w	r2, r2, #1792	; 0x700
 8000996:	0412      	lsls	r2, r2, #16
 8000998:	0c12      	lsrs	r2, r2, #16
 800099a:	4313      	orrs	r3, r2
 800099c:	f043 63bf 	orr.w	r3, r3, #100139008	; 0x5f80000
 80009a0:	f443 3300 	orr.w	r3, r3, #131072	; 0x20000
 80009a4:	60cb      	str	r3, [r1, #12]
 80009a6:	4770      	bx	lr
 80009a8:	e000ed00 	.word	0xe000ed00

080009ac <HAL_NVIC_SetPriority>:
 80009ac:	4b15      	ldr	r3, [pc, #84]	; (8000a04 <HAL_NVIC_SetPriority+0x58>)
 80009ae:	b530      	push	{r4, r5, lr}
 80009b0:	68dc      	ldr	r4, [r3, #12]
 80009b2:	f3c4 2402 	ubfx	r4, r4, #8, #3
 80009b6:	f1c4 0307 	rsb	r3, r4, #7
 80009ba:	1d25      	adds	r5, r4, #4
 80009bc:	2b04      	cmp	r3, #4
 80009be:	bf28      	it	cs
 80009c0:	2304      	movcs	r3, #4
 80009c2:	2d06      	cmp	r5, #6
 80009c4:	f04f 35ff 	mov.w	r5, #4294967295
 80009c8:	bf94      	ite	ls
 80009ca:	2400      	movls	r4, #0
 80009cc:	3c03      	subhi	r4, #3
 80009ce:	fa05 f303 	lsl.w	r3, r5, r3
 80009d2:	ea21 0303 	bic.w	r3, r1, r3
 80009d6:	40a5      	lsls	r5, r4
 80009d8:	ea22 0205 	bic.w	r2, r2, r5
 80009dc:	40a3      	lsls	r3, r4
 80009de:	2800      	cmp	r0, #0
 80009e0:	ea43 0302 	orr.w	r3, r3, r2
 80009e4:	bfac      	ite	ge
 80009e6:	f100 4060 	addge.w	r0, r0, #3758096384	; 0xe0000000
 80009ea:	4a07      	ldrlt	r2, [pc, #28]	; (8000a08 <HAL_NVIC_SetPriority+0x5c>)
 80009ec:	ea4f 1303 	mov.w	r3, r3, lsl #4
 80009f0:	b2db      	uxtb	r3, r3
 80009f2:	bfab      	itete	ge
 80009f4:	f500 4061 	addge.w	r0, r0, #57600	; 0xe100
 80009f8:	f000 000f 	andlt.w	r0, r0, #15
 80009fc:	f880 3300 	strbge.w	r3, [r0, #768]	; 0x300
 8000a00:	5413      	strblt	r3, [r2, r0]
 8000a02:	bd30      	pop	{r4, r5, pc}
 8000a04:	e000ed00 	.word	0xe000ed00
 8000a08:	e000ed14 	.word	0xe000ed14

08000a0c <HAL_NVIC_EnableIRQ>:
 8000a0c:	2800      	cmp	r0, #0
 8000a0e:	db07      	blt.n	8000a20 <HAL_NVIC_EnableIRQ+0x14>
 8000a10:	2301      	movs	r3, #1
 8000a12:	0941      	lsrs	r1, r0, #5
 8000a14:	4a03      	ldr	r2, [pc, #12]	; (8000a24 <HAL_NVIC_EnableIRQ+0x18>)
 8000a16:	f000 001f 	and.w	r0, r0, #31
 8000a1a:	4083      	lsls	r3, r0
 8000a1c:	f842 3021 	str.w	r3, [r2, r1, lsl #2]
 8000a20:	4770      	bx	lr
 8000a22:	bf00      	nop
 8000a24:	e000e100 	.word	0xe000e100

08000a28 <HAL_NVIC_DisableIRQ>:
 8000a28:	2800      	cmp	r0, #0
 8000a2a:	db0c      	blt.n	8000a46 <HAL_NVIC_DisableIRQ+0x1e>
 8000a2c:	2201      	movs	r2, #1
 8000a2e:	4906      	ldr	r1, [pc, #24]	; (8000a48 <HAL_NVIC_DisableIRQ+0x20>)
 8000a30:	0943      	lsrs	r3, r0, #5
 8000a32:	f000 001f 	and.w	r0, r0, #31
 8000a36:	4082      	lsls	r2, r0
 8000a38:	3320      	adds	r3, #32
 8000a3a:	f841 2023 	str.w	r2, [r1, r3, lsl #2]
 8000a3e:	f3bf 8f4f 	dsb	sy
 8000a42:	f3bf 8f6f 	isb	sy
 8000a46:	4770      	bx	lr
 8000a48:	e000e100 	.word	0xe000e100

08000a4c <HAL_SYSTICK_Config>:
 8000a4c:	3801      	subs	r0, #1
 8000a4e:	f1b0 7f80 	cmp.w	r0, #16777216	; 0x1000000
 8000a52:	d20b      	bcs.n	8000a6c <HAL_SYSTICK_Config+0x20>
 8000a54:	f04f 23e0 	mov.w	r3, #3758153728	; 0xe000e000
 8000a58:	21f0      	movs	r1, #240	; 0xf0
 8000a5a:	4a05      	ldr	r2, [pc, #20]	; (8000a70 <HAL_SYSTICK_Config+0x24>)
 8000a5c:	6158      	str	r0, [r3, #20]
 8000a5e:	f882 1023 	strb.w	r1, [r2, #35]	; 0x23
 8000a62:	2000      	movs	r0, #0
 8000a64:	2207      	movs	r2, #7
 8000a66:	6198      	str	r0, [r3, #24]
 8000a68:	611a      	str	r2, [r3, #16]
 8000a6a:	4770      	bx	lr
 8000a6c:	2001      	movs	r0, #1
 8000a6e:	4770      	bx	lr
 8000a70:	e000ed00 	.word	0xe000ed00

08000a74 <HAL_GPIO_Init>:
 8000a74:	e92d 4ff7 	stmdb	sp!, {r0, r1, r2, r4, r5, r6, r7, r8, r9, sl, fp, lr}
 8000a78:	2200      	movs	r2, #0
 8000a7a:	4616      	mov	r6, r2
 8000a7c:	4f64      	ldr	r7, [pc, #400]	; (8000c10 <HAL_GPIO_Init+0x19c>)
 8000a7e:	4b65      	ldr	r3, [pc, #404]	; (8000c14 <HAL_GPIO_Init+0x1a0>)
 8000a80:	f8df c194 	ldr.w	ip, [pc, #404]	; 8000c18 <HAL_GPIO_Init+0x1a4>
 8000a84:	f8df e194 	ldr.w	lr, [pc, #404]	; 8000c1c <HAL_GPIO_Init+0x1a8>
 8000a88:	680d      	ldr	r5, [r1, #0]
 8000a8a:	fa35 f406 	lsrs.w	r4, r5, r6
 8000a8e:	d102      	bne.n	8000a96 <HAL_GPIO_Init+0x22>
 8000a90:	b003      	add	sp, #12
 8000a92:	e8bd 8ff0 	ldmia.w	sp!, {r4, r5, r6, r7, r8, r9, sl, fp, pc}
 8000a96:	f04f 0801 	mov.w	r8, #1
 8000a9a:	fa08 f806 	lsl.w	r8, r8, r6
 8000a9e:	ea05 0408 	and.w	r4, r5, r8
 8000aa2:	ea38 0505 	bics.w	r5, r8, r5
 8000aa6:	d17a      	bne.n	8000b9e <HAL_GPIO_Init+0x12a>
 8000aa8:	684d      	ldr	r5, [r1, #4]
 8000aaa:	2d03      	cmp	r5, #3
 8000aac:	d807      	bhi.n	8000abe <HAL_GPIO_Init+0x4a>
 8000aae:	3d01      	subs	r5, #1
 8000ab0:	2d02      	cmp	r5, #2
 8000ab2:	f200 8087 	bhi.w	8000bc4 <HAL_GPIO_Init+0x150>
 8000ab6:	e8df f005 	tbb	[pc, r5]
 8000aba:	9a95      	.short	0x9a95
 8000abc:	a0          	.byte	0xa0
 8000abd:	00          	.byte	0x00
 8000abe:	2d12      	cmp	r5, #18
 8000ac0:	f000 8098 	beq.w	8000bf4 <HAL_GPIO_Init+0x180>
 8000ac4:	d86d      	bhi.n	8000ba2 <HAL_GPIO_Init+0x12e>
 8000ac6:	2d11      	cmp	r5, #17
 8000ac8:	f000 808e 	beq.w	8000be8 <HAL_GPIO_Init+0x174>
 8000acc:	2cff      	cmp	r4, #255	; 0xff
 8000ace:	bf98      	it	ls
 8000ad0:	4682      	movls	sl, r0
 8000ad2:	f04f 090f 	mov.w	r9, #15
 8000ad6:	bf88      	it	hi
 8000ad8:	f100 0a04 	addhi.w	sl, r0, #4
 8000adc:	ea4f 0586 	mov.w	r5, r6, lsl #2
 8000ae0:	f8da 8000 	ldr.w	r8, [sl]
 8000ae4:	bf88      	it	hi
 8000ae6:	3d20      	subhi	r5, #32
 8000ae8:	fa09 fb05 	lsl.w	fp, r9, r5
 8000aec:	ea28 080b 	bic.w	r8, r8, fp
 8000af0:	fa02 f505 	lsl.w	r5, r2, r5
 8000af4:	ea48 0505 	orr.w	r5, r8, r5
 8000af8:	f8ca 5000 	str.w	r5, [sl]
 8000afc:	f8d1 a004 	ldr.w	sl, [r1, #4]
 8000b00:	f01a 5f80 	tst.w	sl, #268435456	; 0x10000000
 8000b04:	d04b      	beq.n	8000b9e <HAL_GPIO_Init+0x12a>
 8000b06:	69bd      	ldr	r5, [r7, #24]
 8000b08:	f026 0803 	bic.w	r8, r6, #3
 8000b0c:	f045 0501 	orr.w	r5, r5, #1
 8000b10:	61bd      	str	r5, [r7, #24]
 8000b12:	69bd      	ldr	r5, [r7, #24]
 8000b14:	f108 4880 	add.w	r8, r8, #1073741824	; 0x40000000
 8000b18:	f005 0501 	and.w	r5, r5, #1
 8000b1c:	9501      	str	r5, [sp, #4]
 8000b1e:	f508 3880 	add.w	r8, r8, #65536	; 0x10000
 8000b22:	f006 0b03 	and.w	fp, r6, #3
 8000b26:	9d01      	ldr	r5, [sp, #4]
 8000b28:	ea4f 0b8b 	mov.w	fp, fp, lsl #2
 8000b2c:	f8d8 5008 	ldr.w	r5, [r8, #8]
 8000b30:	fa09 f90b 	lsl.w	r9, r9, fp
 8000b34:	ea25 0909 	bic.w	r9, r5, r9
 8000b38:	4d39      	ldr	r5, [pc, #228]	; (8000c20 <HAL_GPIO_Init+0x1ac>)
 8000b3a:	42a8      	cmp	r0, r5
 8000b3c:	d061      	beq.n	8000c02 <HAL_GPIO_Init+0x18e>
 8000b3e:	f505 6580 	add.w	r5, r5, #1024	; 0x400
 8000b42:	42a8      	cmp	r0, r5
 8000b44:	d05f      	beq.n	8000c06 <HAL_GPIO_Init+0x192>
 8000b46:	f505 6580 	add.w	r5, r5, #1024	; 0x400
 8000b4a:	42a8      	cmp	r0, r5
 8000b4c:	d05d      	beq.n	8000c0a <HAL_GPIO_Init+0x196>
 8000b4e:	f505 6580 	add.w	r5, r5, #1024	; 0x400
 8000b52:	42a8      	cmp	r0, r5
 8000b54:	bf0c      	ite	eq
 8000b56:	2503      	moveq	r5, #3
 8000b58:	2504      	movne	r5, #4
 8000b5a:	fa05 f50b 	lsl.w	r5, r5, fp
 8000b5e:	ea45 0509 	orr.w	r5, r5, r9
 8000b62:	f8c8 5008 	str.w	r5, [r8, #8]
 8000b66:	689d      	ldr	r5, [r3, #8]
 8000b68:	f41a 1f80 	tst.w	sl, #1048576	; 0x100000
 8000b6c:	bf14      	ite	ne
 8000b6e:	4325      	orrne	r5, r4
 8000b70:	43a5      	biceq	r5, r4
 8000b72:	609d      	str	r5, [r3, #8]
 8000b74:	68dd      	ldr	r5, [r3, #12]
 8000b76:	f41a 1f00 	tst.w	sl, #2097152	; 0x200000
 8000b7a:	bf14      	ite	ne
 8000b7c:	4325      	orrne	r5, r4
 8000b7e:	43a5      	biceq	r5, r4
 8000b80:	60dd      	str	r5, [r3, #12]
 8000b82:	685d      	ldr	r5, [r3, #4]
 8000b84:	f41a 3f00 	tst.w	sl, #131072	; 0x20000
 8000b88:	bf14      	ite	ne
 8000b8a:	4325      	orrne	r5, r4
 8000b8c:	43a5      	biceq	r5, r4
 8000b8e:	605d      	str	r5, [r3, #4]
 8000b90:	681d      	ldr	r5, [r3, #0]
 8000b92:	f41a 3f80 	tst.w	sl, #65536	; 0x10000
 8000b96:	bf14      	ite	ne
 8000b98:	4325      	orrne	r5, r4
 8000b9a:	43a5      	biceq	r5, r4
 8000b9c:	601d      	str	r5, [r3, #0]
 8000b9e:	3601      	adds	r6, #1
 8000ba0:	e772      	b.n	8000a88 <HAL_GPIO_Init+0x14>
 8000ba2:	f8df 9080 	ldr.w	r9, [pc, #128]	; 8000c24 <HAL_GPIO_Init+0x1b0>
 8000ba6:	454d      	cmp	r5, r9
 8000ba8:	d00c      	beq.n	8000bc4 <HAL_GPIO_Init+0x150>
 8000baa:	d817      	bhi.n	8000bdc <HAL_GPIO_Init+0x168>
 8000bac:	f5a9 1980 	sub.w	r9, r9, #1048576	; 0x100000
 8000bb0:	454d      	cmp	r5, r9
 8000bb2:	d007      	beq.n	8000bc4 <HAL_GPIO_Init+0x150>
 8000bb4:	f509 2970 	add.w	r9, r9, #983040	; 0xf0000
 8000bb8:	454d      	cmp	r5, r9
 8000bba:	d003      	beq.n	8000bc4 <HAL_GPIO_Init+0x150>
 8000bbc:	f5a9 1980 	sub.w	r9, r9, #1048576	; 0x100000
 8000bc0:	454d      	cmp	r5, r9
 8000bc2:	d183      	bne.n	8000acc <HAL_GPIO_Init+0x58>
 8000bc4:	688a      	ldr	r2, [r1, #8]
 8000bc6:	b1d2      	cbz	r2, 8000bfe <HAL_GPIO_Init+0x18a>
 8000bc8:	2a01      	cmp	r2, #1
 8000bca:	bf08      	it	eq
 8000bcc:	f8c0 8010 	streq.w	r8, [r0, #16]
 8000bd0:	f04f 0208 	mov.w	r2, #8
 8000bd4:	bf18      	it	ne
 8000bd6:	f8c0 8014 	strne.w	r8, [r0, #20]
 8000bda:	e777      	b.n	8000acc <HAL_GPIO_Init+0x58>
 8000bdc:	4565      	cmp	r5, ip
 8000bde:	d0f1      	beq.n	8000bc4 <HAL_GPIO_Init+0x150>
 8000be0:	4575      	cmp	r5, lr
 8000be2:	e7ee      	b.n	8000bc2 <HAL_GPIO_Init+0x14e>
 8000be4:	68ca      	ldr	r2, [r1, #12]
 8000be6:	e771      	b.n	8000acc <HAL_GPIO_Init+0x58>
 8000be8:	68ca      	ldr	r2, [r1, #12]
 8000bea:	3204      	adds	r2, #4
 8000bec:	e76e      	b.n	8000acc <HAL_GPIO_Init+0x58>
 8000bee:	68ca      	ldr	r2, [r1, #12]
 8000bf0:	3208      	adds	r2, #8
 8000bf2:	e76b      	b.n	8000acc <HAL_GPIO_Init+0x58>
 8000bf4:	68ca      	ldr	r2, [r1, #12]
 8000bf6:	320c      	adds	r2, #12
 8000bf8:	e768      	b.n	8000acc <HAL_GPIO_Init+0x58>
 8000bfa:	2200      	movs	r2, #0
 8000bfc:	e766      	b.n	8000acc <HAL_GPIO_Init+0x58>
 8000bfe:	2204      	movs	r2, #4
 8000c00:	e764      	b.n	8000acc <HAL_GPIO_Init+0x58>
 8000c02:	2500      	movs	r5, #0
 8000c04:	e7a9      	b.n	8000b5a <HAL_GPIO_Init+0xe6>
 8000c06:	2501      	movs	r5, #1
 8000c08:	e7a7      	b.n	8000b5a <HAL_GPIO_Init+0xe6>
 8000c0a:	2502      	movs	r5, #2
 8000c0c:	e7a5      	b.n	8000b5a <HAL_GPIO_Init+0xe6>
 8000c0e:	bf00      	nop
 8000c10:	40021000 	.word	0x40021000
 8000c14:	40010400 	.word	0x40010400
 8000c18:	10310000 	.word	0x10310000
 8000c1c:	10320000 	.word	0x10320000
 8000c20:	40010800 	.word	0x40010800
 8000c24:	10220000 	.word	0x10220000

08000c28 <HAL_GPIO_ReadPin>:
 8000c28:	6883      	ldr	r3, [r0, #8]
 8000c2a:	4219      	tst	r1, r3
 8000c2c:	bf14      	ite	ne
 8000c2e:	2001      	movne	r0, #1
 8000c30:	2000      	moveq	r0, #0
 8000c32:	4770      	bx	lr

08000c34 <HAL_GPIO_WritePin>:
 8000c34:	b10a      	cbz	r2, 8000c3a <HAL_GPIO_WritePin+0x6>
 8000c36:	6101      	str	r1, [r0, #16]
 8000c38:	4770      	bx	lr
 8000c3a:	0409      	lsls	r1, r1, #16
 8000c3c:	e7fb      	b.n	8000c36 <HAL_GPIO_WritePin+0x2>

08000c3e <HAL_GPIO_TogglePin>:
 8000c3e:	68c3      	ldr	r3, [r0, #12]
 8000c40:	ea01 0203 	and.w	r2, r1, r3
 8000c44:	ea21 0103 	bic.w	r1, r1, r3
 8000c48:	ea41 4102 	orr.w	r1, r1, r2, lsl #16
 8000c4c:	6101      	str	r1, [r0, #16]
 8000c4e:	4770      	bx	lr

08000c50 <HAL_GPIO_EXTI_IRQHandler>:
 8000c50:	4a04      	ldr	r2, [pc, #16]	; (8000c64 <HAL_GPIO_EXTI_IRQHandler+0x14>)
 8000c52:	b508      	push	{r3, lr}
 8000c54:	6951      	ldr	r1, [r2, #20]
 8000c56:	4201      	tst	r1, r0
 8000c58:	d002      	beq.n	8000c60 <HAL_GPIO_EXTI_IRQHandler+0x10>
 8000c5a:	6150      	str	r0, [r2, #20]
 8000c5c:	f7ff fd8e 	bl	800077c <HAL_GPIO_EXTI_Callback>
 8000c60:	bd08      	pop	{r3, pc}
 8000c62:	bf00      	nop
 8000c64:	40010400 	.word	0x40010400

08000c68 <HAL_IWDG_Init>:
 8000c68:	b538      	push	{r3, r4, r5, lr}
 8000c6a:	4604      	mov	r4, r0
 8000c6c:	b308      	cbz	r0, 8000cb2 <HAL_IWDG_Init+0x4a>
 8000c6e:	f64c 42cc 	movw	r2, #52428	; 0xcccc
 8000c72:	6803      	ldr	r3, [r0, #0]
 8000c74:	601a      	str	r2, [r3, #0]
 8000c76:	f245 5255 	movw	r2, #21845	; 0x5555
 8000c7a:	601a      	str	r2, [r3, #0]
 8000c7c:	6842      	ldr	r2, [r0, #4]
 8000c7e:	605a      	str	r2, [r3, #4]
 8000c80:	6882      	ldr	r2, [r0, #8]
 8000c82:	609a      	str	r2, [r3, #8]
 8000c84:	f7ff fe68 	bl	8000958 <HAL_GetTick>
 8000c88:	4605      	mov	r5, r0
 8000c8a:	6822      	ldr	r2, [r4, #0]
 8000c8c:	68d0      	ldr	r0, [r2, #12]
 8000c8e:	f010 0003 	ands.w	r0, r0, #3
 8000c92:	d103      	bne.n	8000c9c <HAL_IWDG_Init+0x34>
 8000c94:	f64a 23aa 	movw	r3, #43690	; 0xaaaa
 8000c98:	6013      	str	r3, [r2, #0]
 8000c9a:	bd38      	pop	{r3, r4, r5, pc}
 8000c9c:	f7ff fe5c 	bl	8000958 <HAL_GetTick>
 8000ca0:	1b40      	subs	r0, r0, r5
 8000ca2:	2827      	cmp	r0, #39	; 0x27
 8000ca4:	d9f1      	bls.n	8000c8a <HAL_IWDG_Init+0x22>
 8000ca6:	6823      	ldr	r3, [r4, #0]
 8000ca8:	68db      	ldr	r3, [r3, #12]
 8000caa:	079b      	lsls	r3, r3, #30
 8000cac:	d0ed      	beq.n	8000c8a <HAL_IWDG_Init+0x22>
 8000cae:	2003      	movs	r0, #3
 8000cb0:	e7f3      	b.n	8000c9a <HAL_IWDG_Init+0x32>
 8000cb2:	2001      	movs	r0, #1
 8000cb4:	e7f1      	b.n	8000c9a <HAL_IWDG_Init+0x32>

08000cb6 <HAL_IWDG_Refresh>:
 8000cb6:	f64a 22aa 	movw	r2, #43690	; 0xaaaa
 8000cba:	6803      	ldr	r3, [r0, #0]
 8000cbc:	2000      	movs	r0, #0
 8000cbe:	601a      	str	r2, [r3, #0]
 8000cc0:	4770      	bx	lr

08000cc2 <HAL_PCD_Init>:
 8000cc2:	b5f0      	push	{r4, r5, r6, r7, lr}
 8000cc4:	4604      	mov	r4, r0
 8000cc6:	b087      	sub	sp, #28
 8000cc8:	b310      	cbz	r0, 8000d10 <HAL_PCD_Init+0x4e>
 8000cca:	f890 32a9 	ldrb.w	r3, [r0, #681]	; 0x2a9
 8000cce:	f003 02ff 	and.w	r2, r3, #255	; 0xff
 8000cd2:	b91b      	cbnz	r3, 8000cdc <HAL_PCD_Init+0x1a>
 8000cd4:	f880 22a8 	strb.w	r2, [r0, #680]	; 0x2a8
 8000cd8:	f002 ffc4 	bl	8003c64 <HAL_PCD_MspInit>
 8000cdc:	2303      	movs	r3, #3
 8000cde:	4625      	mov	r5, r4
 8000ce0:	466e      	mov	r6, sp
 8000ce2:	f884 32a9 	strb.w	r3, [r4, #681]	; 0x2a9
 8000ce6:	f855 0b10 	ldr.w	r0, [r5], #16
 8000cea:	f001 fc94 	bl	8002616 <USB_DisableGlobalInt>
 8000cee:	cd0f      	ldmia	r5!, {r0, r1, r2, r3}
 8000cf0:	c60f      	stmia	r6!, {r0, r1, r2, r3}
 8000cf2:	682b      	ldr	r3, [r5, #0]
 8000cf4:	1d27      	adds	r7, r4, #4
 8000cf6:	6033      	str	r3, [r6, #0]
 8000cf8:	4626      	mov	r6, r4
 8000cfa:	e897 000e 	ldmia.w	r7, {r1, r2, r3}
 8000cfe:	f856 0b10 	ldr.w	r0, [r6], #16
 8000d02:	f001 fc78 	bl	80025f6 <USB_CoreInit>
 8000d06:	4605      	mov	r5, r0
 8000d08:	b120      	cbz	r0, 8000d14 <HAL_PCD_Init+0x52>
 8000d0a:	2302      	movs	r3, #2
 8000d0c:	f884 32a9 	strb.w	r3, [r4, #681]	; 0x2a9
 8000d10:	2501      	movs	r5, #1
 8000d12:	e04b      	b.n	8000dac <HAL_PCD_Init+0xea>
 8000d14:	4601      	mov	r1, r0
 8000d16:	6820      	ldr	r0, [r4, #0]
 8000d18:	f001 fc87 	bl	800262a <USB_SetCurrentMode>
 8000d1c:	4629      	mov	r1, r5
 8000d1e:	f04f 0e01 	mov.w	lr, #1
 8000d22:	2528      	movs	r5, #40	; 0x28
 8000d24:	460a      	mov	r2, r1
 8000d26:	f8d4 c004 	ldr.w	ip, [r4, #4]
 8000d2a:	b2c8      	uxtb	r0, r1
 8000d2c:	4584      	cmp	ip, r0
 8000d2e:	f101 0101 	add.w	r1, r1, #1
 8000d32:	d81b      	bhi.n	8000d6c <HAL_PCD_Init+0xaa>
 8000d34:	2300      	movs	r3, #0
 8000d36:	2528      	movs	r5, #40	; 0x28
 8000d38:	4619      	mov	r1, r3
 8000d3a:	b2d8      	uxtb	r0, r3
 8000d3c:	4584      	cmp	ip, r0
 8000d3e:	f103 0301 	add.w	r3, r3, #1
 8000d42:	d81f      	bhi.n	8000d84 <HAL_PCD_Init+0xc2>
 8000d44:	46ec      	mov	ip, sp
 8000d46:	4635      	mov	r5, r6
 8000d48:	cd0f      	ldmia	r5!, {r0, r1, r2, r3}
 8000d4a:	e8ac 000f 	stmia.w	ip!, {r0, r1, r2, r3}
 8000d4e:	682b      	ldr	r3, [r5, #0]
 8000d50:	f8cc 3000 	str.w	r3, [ip]
 8000d54:	e897 000e 	ldmia.w	r7, {r1, r2, r3}
 8000d58:	6820      	ldr	r0, [r4, #0]
 8000d5a:	f001 fc68 	bl	800262e <USB_DevInit>
 8000d5e:	2301      	movs	r3, #1
 8000d60:	4605      	mov	r5, r0
 8000d62:	b1e0      	cbz	r0, 8000d9e <HAL_PCD_Init+0xdc>
 8000d64:	2202      	movs	r2, #2
 8000d66:	f884 22a9 	strb.w	r2, [r4, #681]	; 0x2a9
 8000d6a:	e7d1      	b.n	8000d10 <HAL_PCD_Init+0x4e>
 8000d6c:	fb05 4300 	mla	r3, r5, r0, r4
 8000d70:	e9c3 220e 	strd	r2, r2, [r3, #56]	; 0x38
 8000d74:	f883 e029 	strb.w	lr, [r3, #41]	; 0x29
 8000d78:	f883 0028 	strb.w	r0, [r3, #40]	; 0x28
 8000d7c:	f883 202b 	strb.w	r2, [r3, #43]	; 0x2b
 8000d80:	641a      	str	r2, [r3, #64]	; 0x40
 8000d82:	e7d2      	b.n	8000d2a <HAL_PCD_Init+0x68>
 8000d84:	fb05 4200 	mla	r2, r5, r0, r4
 8000d88:	e9c2 115e 	strd	r1, r1, [r2, #376]	; 0x178
 8000d8c:	f882 1169 	strb.w	r1, [r2, #361]	; 0x169
 8000d90:	f882 0168 	strb.w	r0, [r2, #360]	; 0x168
 8000d94:	f882 116b 	strb.w	r1, [r2, #363]	; 0x16b
 8000d98:	f8c2 1180 	str.w	r1, [r2, #384]	; 0x180
 8000d9c:	e7cd      	b.n	8000d3a <HAL_PCD_Init+0x78>
 8000d9e:	f884 0024 	strb.w	r0, [r4, #36]	; 0x24
 8000da2:	6820      	ldr	r0, [r4, #0]
 8000da4:	f884 32a9 	strb.w	r3, [r4, #681]	; 0x2a9
 8000da8:	f001 fefa 	bl	8002ba0 <USB_DevDisconnect>
 8000dac:	4628      	mov	r0, r5
 8000dae:	b007      	add	sp, #28
 8000db0:	bdf0      	pop	{r4, r5, r6, r7, pc}

08000db2 <HAL_PCD_Start>:
 8000db2:	b538      	push	{r3, r4, r5, lr}
 8000db4:	f890 32a8 	ldrb.w	r3, [r0, #680]	; 0x2a8
 8000db8:	4604      	mov	r4, r0
 8000dba:	2b01      	cmp	r3, #1
 8000dbc:	d010      	beq.n	8000de0 <HAL_PCD_Start+0x2e>
 8000dbe:	2501      	movs	r5, #1
 8000dc0:	f880 52a8 	strb.w	r5, [r0, #680]	; 0x2a8
 8000dc4:	6800      	ldr	r0, [r0, #0]
 8000dc6:	f001 fc1d 	bl	8002604 <USB_EnableGlobalInt>
 8000dca:	4629      	mov	r1, r5
 8000dcc:	4620      	mov	r0, r4
 8000dce:	f003 f874 	bl	8003eba <HAL_PCDEx_SetConnectionState>
 8000dd2:	6820      	ldr	r0, [r4, #0]
 8000dd4:	f001 fee2 	bl	8002b9c <USB_DevConnect>
 8000dd8:	2000      	movs	r0, #0
 8000dda:	f884 02a8 	strb.w	r0, [r4, #680]	; 0x2a8
 8000dde:	bd38      	pop	{r3, r4, r5, pc}
 8000de0:	2002      	movs	r0, #2
 8000de2:	e7fc      	b.n	8000dde <HAL_PCD_Start+0x2c>

08000de4 <HAL_PCD_SetAddress>:
 8000de4:	b510      	push	{r4, lr}
 8000de6:	f890 22a8 	ldrb.w	r2, [r0, #680]	; 0x2a8
 8000dea:	4604      	mov	r4, r0
 8000dec:	2a01      	cmp	r2, #1
 8000dee:	d00b      	beq.n	8000e08 <HAL_PCD_SetAddress+0x24>
 8000df0:	2201      	movs	r2, #1
 8000df2:	f880 1024 	strb.w	r1, [r0, #36]	; 0x24
 8000df6:	f880 22a8 	strb.w	r2, [r0, #680]	; 0x2a8
 8000dfa:	6800      	ldr	r0, [r0, #0]
 8000dfc:	f001 fec8 	bl	8002b90 <USB_SetDevAddress>
 8000e00:	2000      	movs	r0, #0
 8000e02:	f884 02a8 	strb.w	r0, [r4, #680]	; 0x2a8
 8000e06:	bd10      	pop	{r4, pc}
 8000e08:	2002      	movs	r0, #2
 8000e0a:	e7fc      	b.n	8000e06 <HAL_PCD_SetAddress+0x22>

08000e0c <HAL_PCD_IRQHandler>:
 8000e0c:	e92d 4ff0 	stmdb	sp!, {r4, r5, r6, r7, r8, r9, sl, fp, lr}
 8000e10:	4604      	mov	r4, r0
 8000e12:	b085      	sub	sp, #20
 8000e14:	6800      	ldr	r0, [r0, #0]
 8000e16:	f001 fec5 	bl	8002ba4 <USB_ReadInterrupts>
 8000e1a:	f410 4500 	ands.w	r5, r0, #32768	; 0x8000
 8000e1e:	f000 8424 	beq.w	800166a <HAL_PCD_IRQHandler+0x85e>
 8000e22:	f8df 931c 	ldr.w	r9, [pc, #796]	; 8001140 <HAL_PCD_IRQHandler+0x334>
 8000e26:	f8df 831c 	ldr.w	r8, [pc, #796]	; 8001144 <HAL_PCD_IRQHandler+0x338>
 8000e2a:	6820      	ldr	r0, [r4, #0]
 8000e2c:	f8b0 3044 	ldrh.w	r3, [r0, #68]	; 0x44
 8000e30:	041f      	lsls	r7, r3, #16
 8000e32:	d402      	bmi.n	8000e3a <HAL_PCD_IRQHandler+0x2e>
 8000e34:	b005      	add	sp, #20
 8000e36:	e8bd 8ff0 	ldmia.w	sp!, {r4, r5, r6, r7, r8, r9, sl, fp, pc}
 8000e3a:	f8b0 6044 	ldrh.w	r6, [r0, #68]	; 0x44
 8000e3e:	b2b1      	uxth	r1, r6
 8000e40:	f016 060f 	ands.w	r6, r6, #15
 8000e44:	f040 80c6 	bne.w	8000fd4 <HAL_PCD_IRQHandler+0x1c8>
 8000e48:	f011 0110 	ands.w	r1, r1, #16
 8000e4c:	d12b      	bne.n	8000ea6 <HAL_PCD_IRQHandler+0x9a>
 8000e4e:	8803      	ldrh	r3, [r0, #0]
 8000e50:	b29b      	uxth	r3, r3
 8000e52:	ea03 0309 	and.w	r3, r3, r9
 8000e56:	f443 4300 	orr.w	r3, r3, #32768	; 0x8000
 8000e5a:	8003      	strh	r3, [r0, #0]
 8000e5c:	f8b0 3050 	ldrh.w	r3, [r0, #80]	; 0x50
 8000e60:	f894 2028 	ldrb.w	r2, [r4, #40]	; 0x28
 8000e64:	b29b      	uxth	r3, r3
 8000e66:	eb03 03c2 	add.w	r3, r3, r2, lsl #3
 8000e6a:	eb00 0343 	add.w	r3, r0, r3, lsl #1
 8000e6e:	f8b3 3404 	ldrh.w	r3, [r3, #1028]	; 0x404
 8000e72:	6be2      	ldr	r2, [r4, #60]	; 0x3c
 8000e74:	f3c3 0309 	ubfx	r3, r3, #0, #10
 8000e78:	441a      	add	r2, r3
 8000e7a:	6463      	str	r3, [r4, #68]	; 0x44
 8000e7c:	4620      	mov	r0, r4
 8000e7e:	63e2      	str	r2, [r4, #60]	; 0x3c
 8000e80:	f002 ff3f 	bl	8003d02 <HAL_PCD_DataInStageCallback>
 8000e84:	f894 3024 	ldrb.w	r3, [r4, #36]	; 0x24
 8000e88:	2b00      	cmp	r3, #0
 8000e8a:	d0ce      	beq.n	8000e2a <HAL_PCD_IRQHandler+0x1e>
 8000e8c:	6c22      	ldr	r2, [r4, #64]	; 0x40
 8000e8e:	6821      	ldr	r1, [r4, #0]
 8000e90:	2a00      	cmp	r2, #0
 8000e92:	d1ca      	bne.n	8000e2a <HAL_PCD_IRQHandler+0x1e>
 8000e94:	f894 3024 	ldrb.w	r3, [r4, #36]	; 0x24
 8000e98:	f043 0380 	orr.w	r3, r3, #128	; 0x80
 8000e9c:	f8a1 304c 	strh.w	r3, [r1, #76]	; 0x4c
 8000ea0:	f884 2024 	strb.w	r2, [r4, #36]	; 0x24
 8000ea4:	e7c1      	b.n	8000e2a <HAL_PCD_IRQHandler+0x1e>
 8000ea6:	8805      	ldrh	r5, [r0, #0]
 8000ea8:	b2ab      	uxth	r3, r5
 8000eaa:	f415 6500 	ands.w	r5, r5, #2048	; 0x800
 8000eae:	d021      	beq.n	8000ef4 <HAL_PCD_IRQHandler+0xe8>
 8000eb0:	f8b0 3050 	ldrh.w	r3, [r0, #80]	; 0x50
 8000eb4:	f894 2168 	ldrb.w	r2, [r4, #360]	; 0x168
 8000eb8:	b29b      	uxth	r3, r3
 8000eba:	eb03 03c2 	add.w	r3, r3, r2, lsl #3
 8000ebe:	eb00 0343 	add.w	r3, r0, r3, lsl #1
 8000ec2:	f8b3 340c 	ldrh.w	r3, [r3, #1036]	; 0x40c
 8000ec6:	f8b4 216e 	ldrh.w	r2, [r4, #366]	; 0x16e
 8000eca:	f3c3 0309 	ubfx	r3, r3, #0, #10
 8000ece:	f8c4 3184 	str.w	r3, [r4, #388]	; 0x184
 8000ed2:	f504 712c 	add.w	r1, r4, #688	; 0x2b0
 8000ed6:	f002 f893 	bl	8003000 <USB_ReadPMA>
 8000eda:	6822      	ldr	r2, [r4, #0]
 8000edc:	4620      	mov	r0, r4
 8000ede:	8813      	ldrh	r3, [r2, #0]
 8000ee0:	f023 0370 	bic.w	r3, r3, #112	; 0x70
 8000ee4:	051b      	lsls	r3, r3, #20
 8000ee6:	0d1b      	lsrs	r3, r3, #20
 8000ee8:	f043 0380 	orr.w	r3, r3, #128	; 0x80
 8000eec:	8013      	strh	r3, [r2, #0]
 8000eee:	f002 fef9 	bl	8003ce4 <HAL_PCD_SetupStageCallback>
 8000ef2:	e79a      	b.n	8000e2a <HAL_PCD_IRQHandler+0x1e>
 8000ef4:	0419      	lsls	r1, r3, #16
 8000ef6:	d598      	bpl.n	8000e2a <HAL_PCD_IRQHandler+0x1e>
 8000ef8:	8803      	ldrh	r3, [r0, #0]
 8000efa:	f023 0370 	bic.w	r3, r3, #112	; 0x70
 8000efe:	051b      	lsls	r3, r3, #20
 8000f00:	0d1b      	lsrs	r3, r3, #20
 8000f02:	f043 0380 	orr.w	r3, r3, #128	; 0x80
 8000f06:	8003      	strh	r3, [r0, #0]
 8000f08:	f8b0 3050 	ldrh.w	r3, [r0, #80]	; 0x50
 8000f0c:	f894 2168 	ldrb.w	r2, [r4, #360]	; 0x168
 8000f10:	b29b      	uxth	r3, r3
 8000f12:	eb03 03c2 	add.w	r3, r3, r2, lsl #3
 8000f16:	eb00 0343 	add.w	r3, r0, r3, lsl #1
 8000f1a:	f8b3 340c 	ldrh.w	r3, [r3, #1036]	; 0x40c
 8000f1e:	f3c3 0309 	ubfx	r3, r3, #0, #10
 8000f22:	f8c4 3184 	str.w	r3, [r4, #388]	; 0x184
 8000f26:	b18b      	cbz	r3, 8000f4c <HAL_PCD_IRQHandler+0x140>
 8000f28:	f8d4 117c 	ldr.w	r1, [r4, #380]	; 0x17c
 8000f2c:	b171      	cbz	r1, 8000f4c <HAL_PCD_IRQHandler+0x140>
 8000f2e:	f8b4 216e 	ldrh.w	r2, [r4, #366]	; 0x16e
 8000f32:	f002 f865 	bl	8003000 <USB_ReadPMA>
 8000f36:	f8d4 317c 	ldr.w	r3, [r4, #380]	; 0x17c
 8000f3a:	f8d4 2184 	ldr.w	r2, [r4, #388]	; 0x184
 8000f3e:	4629      	mov	r1, r5
 8000f40:	4413      	add	r3, r2
 8000f42:	4620      	mov	r0, r4
 8000f44:	f8c4 317c 	str.w	r3, [r4, #380]	; 0x17c
 8000f48:	f002 fed2 	bl	8003cf0 <HAL_PCD_DataOutStageCallback>
 8000f4c:	6821      	ldr	r1, [r4, #0]
 8000f4e:	880a      	ldrh	r2, [r1, #0]
 8000f50:	b293      	uxth	r3, r2
 8000f52:	0512      	lsls	r2, r2, #20
 8000f54:	f53f af69 	bmi.w	8000e2a <HAL_PCD_IRQHandler+0x1e>
 8000f58:	f403 5340 	and.w	r3, r3, #12288	; 0x3000
 8000f5c:	f5b3 5f40 	cmp.w	r3, #12288	; 0x3000
 8000f60:	f43f af63 	beq.w	8000e2a <HAL_PCD_IRQHandler+0x1e>
 8000f64:	f8b1 3050 	ldrh.w	r3, [r1, #80]	; 0x50
 8000f68:	f201 400c 	addw	r0, r1, #1036	; 0x40c
 8000f6c:	b29b      	uxth	r3, r3
 8000f6e:	5ac2      	ldrh	r2, [r0, r3]
 8000f70:	f3c2 0209 	ubfx	r2, r2, #0, #10
 8000f74:	52c2      	strh	r2, [r0, r3]
 8000f76:	f8d4 2178 	ldr.w	r2, [r4, #376]	; 0x178
 8000f7a:	2a3e      	cmp	r2, #62	; 0x3e
 8000f7c:	d90c      	bls.n	8000f98 <HAL_PCD_IRQHandler+0x18c>
 8000f7e:	0955      	lsrs	r5, r2, #5
 8000f80:	06d7      	lsls	r7, r2, #27
 8000f82:	5ac2      	ldrh	r2, [r0, r3]
 8000f84:	bf08      	it	eq
 8000f86:	f105 35ff 	addeq.w	r5, r5, #4294967295
 8000f8a:	b292      	uxth	r2, r2
 8000f8c:	ea42 2285 	orr.w	r2, r2, r5, lsl #10
 8000f90:	ea42 0208 	orr.w	r2, r2, r8
 8000f94:	b292      	uxth	r2, r2
 8000f96:	e004      	b.n	8000fa2 <HAL_PCD_IRQHandler+0x196>
 8000f98:	b99a      	cbnz	r2, 8000fc2 <HAL_PCD_IRQHandler+0x1b6>
 8000f9a:	5ac2      	ldrh	r2, [r0, r3]
 8000f9c:	b292      	uxth	r2, r2
 8000f9e:	f442 4200 	orr.w	r2, r2, #32768	; 0x8000
 8000fa2:	52c2      	strh	r2, [r0, r3]
 8000fa4:	880b      	ldrh	r3, [r1, #0]
 8000fa6:	f423 4380 	bic.w	r3, r3, #16384	; 0x4000
 8000faa:	f023 0370 	bic.w	r3, r3, #112	; 0x70
 8000fae:	041b      	lsls	r3, r3, #16
 8000fb0:	0c1b      	lsrs	r3, r3, #16
 8000fb2:	f483 5340 	eor.w	r3, r3, #12288	; 0x3000
 8000fb6:	f443 4300 	orr.w	r3, r3, #32768	; 0x8000
 8000fba:	f043 0380 	orr.w	r3, r3, #128	; 0x80
 8000fbe:	800b      	strh	r3, [r1, #0]
 8000fc0:	e733      	b.n	8000e2a <HAL_PCD_IRQHandler+0x1e>
 8000fc2:	0855      	lsrs	r5, r2, #1
 8000fc4:	07d6      	lsls	r6, r2, #31
 8000fc6:	5ac2      	ldrh	r2, [r0, r3]
 8000fc8:	bf48      	it	mi
 8000fca:	3501      	addmi	r5, #1
 8000fcc:	b292      	uxth	r2, r2
 8000fce:	ea42 2285 	orr.w	r2, r2, r5, lsl #10
 8000fd2:	e7df      	b.n	8000f94 <HAL_PCD_IRQHandler+0x188>
 8000fd4:	f830 3026 	ldrh.w	r3, [r0, r6, lsl #2]
 8000fd8:	041a      	lsls	r2, r3, #16
 8000fda:	b29f      	uxth	r7, r3
 8000fdc:	f140 80f1 	bpl.w	80011c2 <HAL_PCD_IRQHandler+0x3b6>
 8000fe0:	2128      	movs	r1, #40	; 0x28
 8000fe2:	f830 3026 	ldrh.w	r3, [r0, r6, lsl #2]
 8000fe6:	fb01 4106 	mla	r1, r1, r6, r4
 8000fea:	f023 0370 	bic.w	r3, r3, #112	; 0x70
 8000fee:	051b      	lsls	r3, r3, #20
 8000ff0:	0d1b      	lsrs	r3, r3, #20
 8000ff2:	f043 0380 	orr.w	r3, r3, #128	; 0x80
 8000ff6:	f820 3026 	strh.w	r3, [r0, r6, lsl #2]
 8000ffa:	f891 3174 	ldrb.w	r3, [r1, #372]	; 0x174
 8000ffe:	f500 6c80 	add.w	ip, r0, #1024	; 0x400
 8001002:	b9b3      	cbnz	r3, 8001032 <HAL_PCD_IRQHandler+0x226>
 8001004:	f8b0 3050 	ldrh.w	r3, [r0, #80]	; 0x50
 8001008:	f891 2168 	ldrb.w	r2, [r1, #360]	; 0x168
 800100c:	b29b      	uxth	r3, r3
 800100e:	3306      	adds	r3, #6
 8001010:	eb03 03c2 	add.w	r3, r3, r2, lsl #3
 8001014:	f83c 5013 	ldrh.w	r5, [ip, r3, lsl #1]
 8001018:	f3c5 0509 	ubfx	r5, r5, #0, #10
 800101c:	2d00      	cmp	r5, #0
 800101e:	f000 80b4 	beq.w	800118a <HAL_PCD_IRQHandler+0x37e>
 8001022:	462b      	mov	r3, r5
 8001024:	f8b1 216e 	ldrh.w	r2, [r1, #366]	; 0x16e
 8001028:	f8d1 117c 	ldr.w	r1, [r1, #380]	; 0x17c
 800102c:	f001 ffe8 	bl	8003000 <USB_ReadPMA>
 8001030:	e0ab      	b.n	800118a <HAL_PCD_IRQHandler+0x37e>
 8001032:	f891 216b 	ldrb.w	r2, [r1, #363]	; 0x16b
 8001036:	f891 3168 	ldrb.w	r3, [r1, #360]	; 0x168
 800103a:	2a02      	cmp	r2, #2
 800103c:	f040 8084 	bne.w	8001148 <HAL_PCD_IRQHandler+0x33c>
 8001040:	f8b0 5050 	ldrh.w	r5, [r0, #80]	; 0x50
 8001044:	ea4f 0bc3 	mov.w	fp, r3, lsl #3
 8001048:	b2ad      	uxth	r5, r5
 800104a:	f417 4a80 	ands.w	sl, r7, #16384	; 0x4000
 800104e:	f8d1 2180 	ldr.w	r2, [r1, #384]	; 0x180
 8001052:	445d      	add	r5, fp
 8001054:	f007 0e40 	and.w	lr, r7, #64	; 0x40
 8001058:	d039      	beq.n	80010ce <HAL_PCD_IRQHandler+0x2c2>
 800105a:	3502      	adds	r5, #2
 800105c:	f83c 5015 	ldrh.w	r5, [ip, r5, lsl #1]
 8001060:	f3c5 0509 	ubfx	r5, r5, #0, #10
 8001064:	4295      	cmp	r5, r2
 8001066:	d913      	bls.n	8001090 <HAL_PCD_IRQHandler+0x284>
 8001068:	2200      	movs	r2, #0
 800106a:	f8c1 2180 	str.w	r2, [r1, #384]	; 0x180
 800106e:	f830 2023 	ldrh.w	r2, [r0, r3, lsl #2]
 8001072:	f422 4280 	bic.w	r2, r2, #16384	; 0x4000
 8001076:	f022 0270 	bic.w	r2, r2, #112	; 0x70
 800107a:	0412      	lsls	r2, r2, #16
 800107c:	0c12      	lsrs	r2, r2, #16
 800107e:	f482 5200 	eor.w	r2, r2, #8192	; 0x2000
 8001082:	f442 4200 	orr.w	r2, r2, #32768	; 0x8000
 8001086:	f042 0280 	orr.w	r2, r2, #128	; 0x80
 800108a:	f820 2023 	strh.w	r2, [r0, r3, lsl #2]
 800108e:	e004      	b.n	800109a <HAL_PCD_IRQHandler+0x28e>
 8001090:	1b52      	subs	r2, r2, r5
 8001092:	f8c1 2180 	str.w	r2, [r1, #384]	; 0x180
 8001096:	2a00      	cmp	r2, #0
 8001098:	d0e9      	beq.n	800106e <HAL_PCD_IRQHandler+0x262>
 800109a:	f1be 0f00 	cmp.w	lr, #0
 800109e:	d00d      	beq.n	80010bc <HAL_PCD_IRQHandler+0x2b0>
 80010a0:	f830 2023 	ldrh.w	r2, [r0, r3, lsl #2]
 80010a4:	f422 42e0 	bic.w	r2, r2, #28672	; 0x7000
 80010a8:	f022 0270 	bic.w	r2, r2, #112	; 0x70
 80010ac:	0412      	lsls	r2, r2, #16
 80010ae:	0c12      	lsrs	r2, r2, #16
 80010b0:	f442 4200 	orr.w	r2, r2, #32768	; 0x8000
 80010b4:	f042 02c0 	orr.w	r2, r2, #192	; 0xc0
 80010b8:	f820 2023 	strh.w	r2, [r0, r3, lsl #2]
 80010bc:	2d00      	cmp	r5, #0
 80010be:	d064      	beq.n	800118a <HAL_PCD_IRQHandler+0x37e>
 80010c0:	2128      	movs	r1, #40	; 0x28
 80010c2:	fb01 4106 	mla	r1, r1, r6, r4
 80010c6:	462b      	mov	r3, r5
 80010c8:	f8b1 2170 	ldrh.w	r2, [r1, #368]	; 0x170
 80010cc:	e7ac      	b.n	8001028 <HAL_PCD_IRQHandler+0x21c>
 80010ce:	3506      	adds	r5, #6
 80010d0:	f83c 5015 	ldrh.w	r5, [ip, r5, lsl #1]
 80010d4:	f3c5 0509 	ubfx	r5, r5, #0, #10
 80010d8:	4295      	cmp	r5, r2
 80010da:	d912      	bls.n	8001102 <HAL_PCD_IRQHandler+0x2f6>
 80010dc:	f8c1 a180 	str.w	sl, [r1, #384]	; 0x180
 80010e0:	f830 2023 	ldrh.w	r2, [r0, r3, lsl #2]
 80010e4:	f422 4280 	bic.w	r2, r2, #16384	; 0x4000
 80010e8:	f022 0270 	bic.w	r2, r2, #112	; 0x70
 80010ec:	0412      	lsls	r2, r2, #16
 80010ee:	0c12      	lsrs	r2, r2, #16
 80010f0:	f482 5200 	eor.w	r2, r2, #8192	; 0x2000
 80010f4:	f442 4200 	orr.w	r2, r2, #32768	; 0x8000
 80010f8:	f042 0280 	orr.w	r2, r2, #128	; 0x80
 80010fc:	f820 2023 	strh.w	r2, [r0, r3, lsl #2]
 8001100:	e004      	b.n	800110c <HAL_PCD_IRQHandler+0x300>
 8001102:	1b52      	subs	r2, r2, r5
 8001104:	f8c1 2180 	str.w	r2, [r1, #384]	; 0x180
 8001108:	2a00      	cmp	r2, #0
 800110a:	d0e9      	beq.n	80010e0 <HAL_PCD_IRQHandler+0x2d4>
 800110c:	f1be 0f00 	cmp.w	lr, #0
 8001110:	d10d      	bne.n	800112e <HAL_PCD_IRQHandler+0x322>
 8001112:	f830 2023 	ldrh.w	r2, [r0, r3, lsl #2]
 8001116:	f422 42e0 	bic.w	r2, r2, #28672	; 0x7000
 800111a:	f022 0270 	bic.w	r2, r2, #112	; 0x70
 800111e:	0412      	lsls	r2, r2, #16
 8001120:	0c12      	lsrs	r2, r2, #16
 8001122:	f442 4200 	orr.w	r2, r2, #32768	; 0x8000
 8001126:	f042 02c0 	orr.w	r2, r2, #192	; 0xc0
 800112a:	f820 2023 	strh.w	r2, [r0, r3, lsl #2]
 800112e:	b365      	cbz	r5, 800118a <HAL_PCD_IRQHandler+0x37e>
 8001130:	2128      	movs	r1, #40	; 0x28
 8001132:	fb01 4106 	mla	r1, r1, r6, r4
 8001136:	462b      	mov	r3, r5
 8001138:	f8b1 2172 	ldrh.w	r2, [r1, #370]	; 0x172
 800113c:	e774      	b.n	8001028 <HAL_PCD_IRQHandler+0x21c>
 800113e:	bf00      	nop
 8001140:	ffff8f0f 	.word	0xffff8f0f
 8001144:	ffff8000 	.word	0xffff8000
 8001148:	f830 2023 	ldrh.w	r2, [r0, r3, lsl #2]
 800114c:	f422 42e0 	bic.w	r2, r2, #28672	; 0x7000
 8001150:	f022 0270 	bic.w	r2, r2, #112	; 0x70
 8001154:	0412      	lsls	r2, r2, #16
 8001156:	0c12      	lsrs	r2, r2, #16
 8001158:	f442 4200 	orr.w	r2, r2, #32768	; 0x8000
 800115c:	f042 02c0 	orr.w	r2, r2, #192	; 0xc0
 8001160:	f820 2023 	strh.w	r2, [r0, r3, lsl #2]
 8001164:	f891 2168 	ldrb.w	r2, [r1, #360]	; 0x168
 8001168:	f830 3022 	ldrh.w	r3, [r0, r2, lsl #2]
 800116c:	00d2      	lsls	r2, r2, #3
 800116e:	f413 4f80 	tst.w	r3, #16384	; 0x4000
 8001172:	f8b0 3050 	ldrh.w	r3, [r0, #80]	; 0x50
 8001176:	b29b      	uxth	r3, r3
 8001178:	d055      	beq.n	8001226 <HAL_PCD_IRQHandler+0x41a>
 800117a:	3302      	adds	r3, #2
 800117c:	4413      	add	r3, r2
 800117e:	f83c 5013 	ldrh.w	r5, [ip, r3, lsl #1]
 8001182:	f3c5 0509 	ubfx	r5, r5, #0, #10
 8001186:	2d00      	cmp	r5, #0
 8001188:	d19d      	bne.n	80010c6 <HAL_PCD_IRQHandler+0x2ba>
 800118a:	2128      	movs	r1, #40	; 0x28
 800118c:	4371      	muls	r1, r6
 800118e:	1863      	adds	r3, r4, r1
 8001190:	f8d3 2184 	ldr.w	r2, [r3, #388]	; 0x184
 8001194:	442a      	add	r2, r5
 8001196:	f8c3 2184 	str.w	r2, [r3, #388]	; 0x184
 800119a:	f8d3 217c 	ldr.w	r2, [r3, #380]	; 0x17c
 800119e:	442a      	add	r2, r5
 80011a0:	f8c3 217c 	str.w	r2, [r3, #380]	; 0x17c
 80011a4:	f8d3 2180 	ldr.w	r2, [r3, #384]	; 0x180
 80011a8:	b11a      	cbz	r2, 80011b2 <HAL_PCD_IRQHandler+0x3a6>
 80011aa:	f8d3 3178 	ldr.w	r3, [r3, #376]	; 0x178
 80011ae:	429d      	cmp	r5, r3
 80011b0:	d242      	bcs.n	8001238 <HAL_PCD_IRQHandler+0x42c>
 80011b2:	2328      	movs	r3, #40	; 0x28
 80011b4:	fb03 4306 	mla	r3, r3, r6, r4
 80011b8:	4620      	mov	r0, r4
 80011ba:	f893 1168 	ldrb.w	r1, [r3, #360]	; 0x168
 80011be:	f002 fd97 	bl	8003cf0 <HAL_PCD_DataOutStageCallback>
 80011c2:	063b      	lsls	r3, r7, #24
 80011c4:	6820      	ldr	r0, [r4, #0]
 80011c6:	f57f ae30 	bpl.w	8000e2a <HAL_PCD_IRQHandler+0x1e>
 80011ca:	2228      	movs	r2, #40	; 0x28
 80011cc:	f830 3026 	ldrh.w	r3, [r0, r6, lsl #2]
 80011d0:	fb02 4506 	mla	r5, r2, r6, r4
 80011d4:	b29b      	uxth	r3, r3
 80011d6:	ea03 0309 	and.w	r3, r3, r9
 80011da:	f443 4300 	orr.w	r3, r3, #32768	; 0x8000
 80011de:	f820 3026 	strh.w	r3, [r0, r6, lsl #2]
 80011e2:	f895 302b 	ldrb.w	r3, [r5, #43]	; 0x2b
 80011e6:	2b01      	cmp	r3, #1
 80011e8:	d150      	bne.n	800128c <HAL_PCD_IRQHandler+0x480>
 80011ea:	2100      	movs	r1, #0
 80011ec:	f895 3034 	ldrb.w	r3, [r5, #52]	; 0x34
 80011f0:	6429      	str	r1, [r5, #64]	; 0x40
 80011f2:	b393      	cbz	r3, 800125a <HAL_PCD_IRQHandler+0x44e>
 80011f4:	f017 0740 	ands.w	r7, r7, #64	; 0x40
 80011f8:	f895 2029 	ldrb.w	r2, [r5, #41]	; 0x29
 80011fc:	f895 3028 	ldrb.w	r3, [r5, #40]	; 0x28
 8001200:	d031      	beq.n	8001266 <HAL_PCD_IRQHandler+0x45a>
 8001202:	bb02      	cbnz	r2, 8001246 <HAL_PCD_IRQHandler+0x43a>
 8001204:	f8b0 2050 	ldrh.w	r2, [r0, #80]	; 0x50
 8001208:	011b      	lsls	r3, r3, #4
 800120a:	b292      	uxth	r2, r2
 800120c:	f200 4004 	addw	r0, r0, #1028	; 0x404
 8001210:	4410      	add	r0, r2
 8001212:	5a1a      	ldrh	r2, [r3, r0]
 8001214:	f3c2 0209 	ubfx	r2, r2, #0, #10
 8001218:	521a      	strh	r2, [r3, r0]
 800121a:	5a1a      	ldrh	r2, [r3, r0]
 800121c:	b292      	uxth	r2, r2
 800121e:	f442 4200 	orr.w	r2, r2, #32768	; 0x8000
 8001222:	521a      	strh	r2, [r3, r0]
 8001224:	e019      	b.n	800125a <HAL_PCD_IRQHandler+0x44e>
 8001226:	3306      	adds	r3, #6
 8001228:	441a      	add	r2, r3
 800122a:	f83c 5012 	ldrh.w	r5, [ip, r2, lsl #1]
 800122e:	f3c5 0509 	ubfx	r5, r5, #0, #10
 8001232:	2d00      	cmp	r5, #0
 8001234:	d0a9      	beq.n	800118a <HAL_PCD_IRQHandler+0x37e>
 8001236:	e77e      	b.n	8001136 <HAL_PCD_IRQHandler+0x32a>
 8001238:	f501 71b4 	add.w	r1, r1, #360	; 0x168
 800123c:	6820      	ldr	r0, [r4, #0]
 800123e:	4421      	add	r1, r4
 8001240:	f001 fcc6 	bl	8002bd0 <USB_EPStartXfer>
 8001244:	e7bd      	b.n	80011c2 <HAL_PCD_IRQHandler+0x3b6>
 8001246:	2a01      	cmp	r2, #1
 8001248:	d107      	bne.n	800125a <HAL_PCD_IRQHandler+0x44e>
 800124a:	f8b0 2050 	ldrh.w	r2, [r0, #80]	; 0x50
 800124e:	f200 4004 	addw	r0, r0, #1028	; 0x404
 8001252:	b292      	uxth	r2, r2
 8001254:	011b      	lsls	r3, r3, #4
 8001256:	4410      	add	r0, r2
 8001258:	5219      	strh	r1, [r3, r0]
 800125a:	f895 1028 	ldrb.w	r1, [r5, #40]	; 0x28
 800125e:	4620      	mov	r0, r4
 8001260:	f002 fd4f 	bl	8003d02 <HAL_PCD_DataInStageCallback>
 8001264:	e5e1      	b.n	8000e2a <HAL_PCD_IRQHandler+0x1e>
 8001266:	b932      	cbnz	r2, 8001276 <HAL_PCD_IRQHandler+0x46a>
 8001268:	f8b0 2050 	ldrh.w	r2, [r0, #80]	; 0x50
 800126c:	011b      	lsls	r3, r3, #4
 800126e:	b292      	uxth	r2, r2
 8001270:	f200 400c 	addw	r0, r0, #1036	; 0x40c
 8001274:	e7cc      	b.n	8001210 <HAL_PCD_IRQHandler+0x404>
 8001276:	2a01      	cmp	r2, #1
 8001278:	d1ef      	bne.n	800125a <HAL_PCD_IRQHandler+0x44e>
 800127a:	f8b0 2050 	ldrh.w	r2, [r0, #80]	; 0x50
 800127e:	f200 400c 	addw	r0, r0, #1036	; 0x40c
 8001282:	b292      	uxth	r2, r2
 8001284:	011b      	lsls	r3, r3, #4
 8001286:	4410      	add	r0, r2
 8001288:	521f      	strh	r7, [r3, r0]
 800128a:	e7e6      	b.n	800125a <HAL_PCD_IRQHandler+0x44e>
 800128c:	f895 1028 	ldrb.w	r1, [r5, #40]	; 0x28
 8001290:	f417 7c80 	ands.w	ip, r7, #256	; 0x100
 8001294:	6c2b      	ldr	r3, [r5, #64]	; 0x40
 8001296:	ea4f 0ac1 	mov.w	sl, r1, lsl #3
 800129a:	f500 6e80 	add.w	lr, r0, #1024	; 0x400
 800129e:	d11b      	bne.n	80012d8 <HAL_PCD_IRQHandler+0x4cc>
 80012a0:	f8b0 7050 	ldrh.w	r7, [r0, #80]	; 0x50
 80012a4:	b2bf      	uxth	r7, r7
 80012a6:	4457      	add	r7, sl
 80012a8:	3702      	adds	r7, #2
 80012aa:	f83e 7017 	ldrh.w	r7, [lr, r7, lsl #1]
 80012ae:	f3c7 0709 	ubfx	r7, r7, #0, #10
 80012b2:	429f      	cmp	r7, r3
 80012b4:	d302      	bcc.n	80012bc <HAL_PCD_IRQHandler+0x4b0>
 80012b6:	f8c5 c040 	str.w	ip, [r5, #64]	; 0x40
 80012ba:	e7d0      	b.n	800125e <HAL_PCD_IRQHandler+0x452>
 80012bc:	1bdb      	subs	r3, r3, r7
 80012be:	642b      	str	r3, [r5, #64]	; 0x40
 80012c0:	6beb      	ldr	r3, [r5, #60]	; 0x3c
 80012c2:	fb06 2202 	mla	r2, r6, r2, r2
 80012c6:	443b      	add	r3, r7
 80012c8:	63eb      	str	r3, [r5, #60]	; 0x3c
 80012ca:	6c6b      	ldr	r3, [r5, #68]	; 0x44
 80012cc:	18a1      	adds	r1, r4, r2
 80012ce:	443b      	add	r3, r7
 80012d0:	646b      	str	r3, [r5, #68]	; 0x44
 80012d2:	f001 fc7d 	bl	8002bd0 <USB_EPStartXfer>
 80012d6:	e5a8      	b.n	8000e2a <HAL_PCD_IRQHandler+0x1e>
 80012d8:	f8b0 2050 	ldrh.w	r2, [r0, #80]	; 0x50
 80012dc:	f017 0c40 	ands.w	ip, r7, #64	; 0x40
 80012e0:	b292      	uxth	r2, r2
 80012e2:	4452      	add	r2, sl
 80012e4:	f407 4780 	and.w	r7, r7, #16384	; 0x4000
 80012e8:	f000 80dc 	beq.w	80014a4 <HAL_PCD_IRQHandler+0x698>
 80012ec:	3202      	adds	r2, #2
 80012ee:	f83e 2012 	ldrh.w	r2, [lr, r2, lsl #1]
 80012f2:	f04f 0c28 	mov.w	ip, #40	; 0x28
 80012f6:	f3c2 0209 	ubfx	r2, r2, #0, #10
 80012fa:	429a      	cmp	r2, r3
 80012fc:	bf28      	it	cs
 80012fe:	2300      	movcs	r3, #0
 8001300:	fb0c 4c06 	mla	ip, ip, r6, r4
 8001304:	bf38      	it	cc
 8001306:	1a9b      	subcc	r3, r3, r2
 8001308:	f8cc 3040 	str.w	r3, [ip, #64]	; 0x40
 800130c:	b2bf      	uxth	r7, r7
 800130e:	2b00      	cmp	r3, #0
 8001310:	d14d      	bne.n	80013ae <HAL_PCD_IRQHandler+0x5a2>
 8001312:	f895 2029 	ldrb.w	r2, [r5, #41]	; 0x29
 8001316:	2a00      	cmp	r2, #0
 8001318:	d136      	bne.n	8001388 <HAL_PCD_IRQHandler+0x57c>
 800131a:	f8b0 2050 	ldrh.w	r2, [r0, #80]	; 0x50
 800131e:	f200 4604 	addw	r6, r0, #1028	; 0x404
 8001322:	b292      	uxth	r2, r2
 8001324:	010b      	lsls	r3, r1, #4
 8001326:	4416      	add	r6, r2
 8001328:	5af2      	ldrh	r2, [r6, r3]
 800132a:	f3c2 0209 	ubfx	r2, r2, #0, #10
 800132e:	52f2      	strh	r2, [r6, r3]
 8001330:	5af2      	ldrh	r2, [r6, r3]
 8001332:	b292      	uxth	r2, r2
 8001334:	f442 4200 	orr.w	r2, r2, #32768	; 0x8000
 8001338:	52f2      	strh	r2, [r6, r3]
 800133a:	f8b0 2050 	ldrh.w	r2, [r0, #80]	; 0x50
 800133e:	f200 400c 	addw	r0, r0, #1036	; 0x40c
 8001342:	b292      	uxth	r2, r2
 8001344:	4410      	add	r0, r2
 8001346:	5ac2      	ldrh	r2, [r0, r3]
 8001348:	f3c2 0209 	ubfx	r2, r2, #0, #10
 800134c:	52c2      	strh	r2, [r0, r3]
 800134e:	5ac2      	ldrh	r2, [r0, r3]
 8001350:	b292      	uxth	r2, r2
 8001352:	f442 4200 	orr.w	r2, r2, #32768	; 0x8000
 8001356:	52c2      	strh	r2, [r0, r3]
 8001358:	4620      	mov	r0, r4
 800135a:	f002 fcd2 	bl	8003d02 <HAL_PCD_DataInStageCallback>
 800135e:	2f00      	cmp	r7, #0
 8001360:	f000 80dc 	beq.w	800151c <HAL_PCD_IRQHandler+0x710>
 8001364:	f895 1028 	ldrb.w	r1, [r5, #40]	; 0x28
 8001368:	6822      	ldr	r2, [r4, #0]
 800136a:	f832 3021 	ldrh.w	r3, [r2, r1, lsl #2]
 800136e:	f423 43e0 	bic.w	r3, r3, #28672	; 0x7000
 8001372:	f023 0370 	bic.w	r3, r3, #112	; 0x70
 8001376:	041b      	lsls	r3, r3, #16
 8001378:	0c1b      	lsrs	r3, r3, #16
 800137a:	f443 4340 	orr.w	r3, r3, #49152	; 0xc000
 800137e:	f043 0380 	orr.w	r3, r3, #128	; 0x80
 8001382:	f822 3021 	strh.w	r3, [r2, r1, lsl #2]
 8001386:	e0c9      	b.n	800151c <HAL_PCD_IRQHandler+0x710>
 8001388:	2a01      	cmp	r2, #1
 800138a:	d1e5      	bne.n	8001358 <HAL_PCD_IRQHandler+0x54c>
 800138c:	f8b0 c050 	ldrh.w	ip, [r0, #80]	; 0x50
 8001390:	f200 4604 	addw	r6, r0, #1028	; 0x404
 8001394:	fa1f fc8c 	uxth.w	ip, ip
 8001398:	010a      	lsls	r2, r1, #4
 800139a:	4466      	add	r6, ip
 800139c:	52b3      	strh	r3, [r6, r2]
 800139e:	f8b0 6050 	ldrh.w	r6, [r0, #80]	; 0x50
 80013a2:	f200 400c 	addw	r0, r0, #1036	; 0x40c
 80013a6:	b2b6      	uxth	r6, r6
 80013a8:	4430      	add	r0, r6
 80013aa:	5283      	strh	r3, [r0, r2]
 80013ac:	e7d4      	b.n	8001358 <HAL_PCD_IRQHandler+0x54c>
 80013ae:	b16f      	cbz	r7, 80013cc <HAL_PCD_IRQHandler+0x5c0>
 80013b0:	f830 3021 	ldrh.w	r3, [r0, r1, lsl #2]
 80013b4:	f423 43e0 	bic.w	r3, r3, #28672	; 0x7000
 80013b8:	f023 0370 	bic.w	r3, r3, #112	; 0x70
 80013bc:	041b      	lsls	r3, r3, #16
 80013be:	0c1b      	lsrs	r3, r3, #16
 80013c0:	f443 4340 	orr.w	r3, r3, #49152	; 0xc000
 80013c4:	f043 0380 	orr.w	r3, r3, #128	; 0x80
 80013c8:	f820 3021 	strh.w	r3, [r0, r1, lsl #2]
 80013cc:	2728      	movs	r7, #40	; 0x28
 80013ce:	fb07 4706 	mla	r7, r7, r6, r4
 80013d2:	f897 304c 	ldrb.w	r3, [r7, #76]	; 0x4c
 80013d6:	2b01      	cmp	r3, #1
 80013d8:	f040 80a0 	bne.w	800151c <HAL_PCD_IRQHandler+0x710>
 80013dc:	6bfb      	ldr	r3, [r7, #60]	; 0x3c
 80013de:	f8d7 e048 	ldr.w	lr, [r7, #72]	; 0x48
 80013e2:	eb03 0c02 	add.w	ip, r3, r2
 80013e6:	6c7b      	ldr	r3, [r7, #68]	; 0x44
 80013e8:	f8c7 c03c 	str.w	ip, [r7, #60]	; 0x3c
 80013ec:	4413      	add	r3, r2
 80013ee:	647b      	str	r3, [r7, #68]	; 0x44
 80013f0:	6bbb      	ldr	r3, [r7, #56]	; 0x38
 80013f2:	459e      	cmp	lr, r3
 80013f4:	d32c      	bcc.n	8001450 <HAL_PCD_IRQHandler+0x644>
 80013f6:	ebae 0203 	sub.w	r2, lr, r3
 80013fa:	64ba      	str	r2, [r7, #72]	; 0x48
 80013fc:	f895 2029 	ldrb.w	r2, [r5, #41]	; 0x29
 8001400:	fa1f fe83 	uxth.w	lr, r3
 8001404:	2a00      	cmp	r2, #0
 8001406:	d141      	bne.n	800148c <HAL_PCD_IRQHandler+0x680>
 8001408:	f8b0 7050 	ldrh.w	r7, [r0, #80]	; 0x50
 800140c:	f200 4204 	addw	r2, r0, #1028	; 0x404
 8001410:	b2bf      	uxth	r7, r7
 8001412:	443a      	add	r2, r7
 8001414:	0109      	lsls	r1, r1, #4
 8001416:	5a57      	ldrh	r7, [r2, r1]
 8001418:	2b3e      	cmp	r3, #62	; 0x3e
 800141a:	f3c7 0709 	ubfx	r7, r7, #0, #10
 800141e:	5257      	strh	r7, [r2, r1]
 8001420:	d923      	bls.n	800146a <HAL_PCD_IRQHandler+0x65e>
 8001422:	06df      	lsls	r7, r3, #27
 8001424:	5a57      	ldrh	r7, [r2, r1]
 8001426:	ea4f 1a53 	mov.w	sl, r3, lsr #5
 800142a:	bf08      	it	eq
 800142c:	f10a 3aff 	addeq.w	sl, sl, #4294967295
 8001430:	b2bf      	uxth	r7, r7
 8001432:	ea47 278a 	orr.w	r7, r7, sl, lsl #10
 8001436:	ea47 0708 	orr.w	r7, r7, r8
 800143a:	b2bf      	uxth	r7, r7
 800143c:	5257      	strh	r7, [r2, r1]
 800143e:	2228      	movs	r2, #40	; 0x28
 8001440:	4673      	mov	r3, lr
 8001442:	4661      	mov	r1, ip
 8001444:	fb02 4206 	mla	r2, r2, r6, r4
 8001448:	8e12      	ldrh	r2, [r2, #48]	; 0x30
 800144a:	f001 fbb1 	bl	8002bb0 <USB_WritePMA>
 800144e:	e065      	b.n	800151c <HAL_PCD_IRQHandler+0x710>
 8001450:	f1be 0f00 	cmp.w	lr, #0
 8001454:	d103      	bne.n	800145e <HAL_PCD_IRQHandler+0x652>
 8001456:	4613      	mov	r3, r2
 8001458:	f887 e04c 	strb.w	lr, [r7, #76]	; 0x4c
 800145c:	e7ce      	b.n	80013fc <HAL_PCD_IRQHandler+0x5f0>
 800145e:	2300      	movs	r3, #0
 8001460:	f887 304c 	strb.w	r3, [r7, #76]	; 0x4c
 8001464:	64bb      	str	r3, [r7, #72]	; 0x48
 8001466:	4673      	mov	r3, lr
 8001468:	e7c8      	b.n	80013fc <HAL_PCD_IRQHandler+0x5f0>
 800146a:	b92b      	cbnz	r3, 8001478 <HAL_PCD_IRQHandler+0x66c>
 800146c:	5a53      	ldrh	r3, [r2, r1]
 800146e:	b29b      	uxth	r3, r3
 8001470:	f443 4300 	orr.w	r3, r3, #32768	; 0x8000
 8001474:	5253      	strh	r3, [r2, r1]
 8001476:	e7e2      	b.n	800143e <HAL_PCD_IRQHandler+0x632>
 8001478:	085f      	lsrs	r7, r3, #1
 800147a:	07db      	lsls	r3, r3, #31
 800147c:	5a53      	ldrh	r3, [r2, r1]
 800147e:	bf48      	it	mi
 8001480:	3701      	addmi	r7, #1
 8001482:	b29b      	uxth	r3, r3
 8001484:	ea43 2387 	orr.w	r3, r3, r7, lsl #10
 8001488:	b29b      	uxth	r3, r3
 800148a:	e7f3      	b.n	8001474 <HAL_PCD_IRQHandler+0x668>
 800148c:	2a01      	cmp	r2, #1
 800148e:	d1d6      	bne.n	800143e <HAL_PCD_IRQHandler+0x632>
 8001490:	f8b0 2050 	ldrh.w	r2, [r0, #80]	; 0x50
 8001494:	f200 4304 	addw	r3, r0, #1028	; 0x404
 8001498:	b292      	uxth	r2, r2
 800149a:	4413      	add	r3, r2
 800149c:	0109      	lsls	r1, r1, #4
 800149e:	f823 e001 	strh.w	lr, [r3, r1]
 80014a2:	e7cc      	b.n	800143e <HAL_PCD_IRQHandler+0x632>
 80014a4:	3206      	adds	r2, #6
 80014a6:	f83e 2012 	ldrh.w	r2, [lr, r2, lsl #1]
 80014aa:	b2bf      	uxth	r7, r7
 80014ac:	f3c2 0209 	ubfx	r2, r2, #0, #10
 80014b0:	429a      	cmp	r2, r3
 80014b2:	bf88      	it	hi
 80014b4:	4663      	movhi	r3, ip
 80014b6:	f04f 0c28 	mov.w	ip, #40	; 0x28
 80014ba:	fb0c 4c06 	mla	ip, ip, r6, r4
 80014be:	bf98      	it	ls
 80014c0:	1a9b      	subls	r3, r3, r2
 80014c2:	f8cc 3040 	str.w	r3, [ip, #64]	; 0x40
 80014c6:	2b00      	cmp	r3, #0
 80014c8:	d14e      	bne.n	8001568 <HAL_PCD_IRQHandler+0x75c>
 80014ca:	f895 2029 	ldrb.w	r2, [r5, #41]	; 0x29
 80014ce:	2a00      	cmp	r2, #0
 80014d0:	d137      	bne.n	8001542 <HAL_PCD_IRQHandler+0x736>
 80014d2:	f8b0 2050 	ldrh.w	r2, [r0, #80]	; 0x50
 80014d6:	f200 4604 	addw	r6, r0, #1028	; 0x404
 80014da:	b292      	uxth	r2, r2
 80014dc:	010b      	lsls	r3, r1, #4
 80014de:	4416      	add	r6, r2
 80014e0:	5af2      	ldrh	r2, [r6, r3]
 80014e2:	f3c2 0209 	ubfx	r2, r2, #0, #10
 80014e6:	52f2      	strh	r2, [r6, r3]
 80014e8:	5af2      	ldrh	r2, [r6, r3]
 80014ea:	b292      	uxth	r2, r2
 80014ec:	f442 4200 	orr.w	r2, r2, #32768	; 0x8000
 80014f0:	52f2      	strh	r2, [r6, r3]
 80014f2:	f8b0 2050 	ldrh.w	r2, [r0, #80]	; 0x50
 80014f6:	f200 400c 	addw	r0, r0, #1036	; 0x40c
 80014fa:	b292      	uxth	r2, r2
 80014fc:	4410      	add	r0, r2
 80014fe:	5ac2      	ldrh	r2, [r0, r3]
 8001500:	f3c2 0209 	ubfx	r2, r2, #0, #10
 8001504:	52c2      	strh	r2, [r0, r3]
 8001506:	5ac2      	ldrh	r2, [r0, r3]
 8001508:	b292      	uxth	r2, r2
 800150a:	f442 4200 	orr.w	r2, r2, #32768	; 0x8000
 800150e:	52c2      	strh	r2, [r0, r3]
 8001510:	4620      	mov	r0, r4
 8001512:	f002 fbf6 	bl	8003d02 <HAL_PCD_DataInStageCallback>
 8001516:	2f00      	cmp	r7, #0
 8001518:	f43f af24 	beq.w	8001364 <HAL_PCD_IRQHandler+0x558>
 800151c:	f895 1028 	ldrb.w	r1, [r5, #40]	; 0x28
 8001520:	6822      	ldr	r2, [r4, #0]
 8001522:	f832 3021 	ldrh.w	r3, [r2, r1, lsl #2]
 8001526:	b29b      	uxth	r3, r3
 8001528:	f423 43e0 	bic.w	r3, r3, #28672	; 0x7000
 800152c:	f023 0340 	bic.w	r3, r3, #64	; 0x40
 8001530:	f083 0330 	eor.w	r3, r3, #48	; 0x30
 8001534:	f443 4300 	orr.w	r3, r3, #32768	; 0x8000
 8001538:	f043 0380 	orr.w	r3, r3, #128	; 0x80
 800153c:	f822 3021 	strh.w	r3, [r2, r1, lsl #2]
 8001540:	e473      	b.n	8000e2a <HAL_PCD_IRQHandler+0x1e>
 8001542:	2a01      	cmp	r2, #1
 8001544:	d1e4      	bne.n	8001510 <HAL_PCD_IRQHandler+0x704>
 8001546:	f8b0 c050 	ldrh.w	ip, [r0, #80]	; 0x50
 800154a:	f200 4604 	addw	r6, r0, #1028	; 0x404
 800154e:	fa1f fc8c 	uxth.w	ip, ip
 8001552:	010a      	lsls	r2, r1, #4
 8001554:	4466      	add	r6, ip
 8001556:	52b3      	strh	r3, [r6, r2]
 8001558:	f8b0 6050 	ldrh.w	r6, [r0, #80]	; 0x50
 800155c:	f200 400c 	addw	r0, r0, #1036	; 0x40c
 8001560:	b2b6      	uxth	r6, r6
 8001562:	4430      	add	r0, r6
 8001564:	5283      	strh	r3, [r0, r2]
 8001566:	e7d3      	b.n	8001510 <HAL_PCD_IRQHandler+0x704>
 8001568:	b96f      	cbnz	r7, 8001586 <HAL_PCD_IRQHandler+0x77a>
 800156a:	f830 3021 	ldrh.w	r3, [r0, r1, lsl #2]
 800156e:	f423 43e0 	bic.w	r3, r3, #28672	; 0x7000
 8001572:	f023 0370 	bic.w	r3, r3, #112	; 0x70
 8001576:	041b      	lsls	r3, r3, #16
 8001578:	0c1b      	lsrs	r3, r3, #16
 800157a:	f443 4340 	orr.w	r3, r3, #49152	; 0xc000
 800157e:	f043 0380 	orr.w	r3, r3, #128	; 0x80
 8001582:	f820 3021 	strh.w	r3, [r0, r1, lsl #2]
 8001586:	f04f 0c28 	mov.w	ip, #40	; 0x28
 800158a:	fb0c 4c06 	mla	ip, ip, r6, r4
 800158e:	f89c 304c 	ldrb.w	r3, [ip, #76]	; 0x4c
 8001592:	2b01      	cmp	r3, #1
 8001594:	d1c2      	bne.n	800151c <HAL_PCD_IRQHandler+0x710>
 8001596:	f8dc 3044 	ldr.w	r3, [ip, #68]	; 0x44
 800159a:	f8dc 703c 	ldr.w	r7, [ip, #60]	; 0x3c
 800159e:	4413      	add	r3, r2
 80015a0:	f8dc e048 	ldr.w	lr, [ip, #72]	; 0x48
 80015a4:	f8cc 3044 	str.w	r3, [ip, #68]	; 0x44
 80015a8:	f8dc 3038 	ldr.w	r3, [ip, #56]	; 0x38
 80015ac:	4417      	add	r7, r2
 80015ae:	459e      	cmp	lr, r3
 80015b0:	f8cc 703c 	str.w	r7, [ip, #60]	; 0x3c
 80015b4:	d327      	bcc.n	8001606 <HAL_PCD_IRQHandler+0x7fa>
 80015b6:	ebae 0203 	sub.w	r2, lr, r3
 80015ba:	f8cc 2048 	str.w	r2, [ip, #72]	; 0x48
 80015be:	f895 2029 	ldrb.w	r2, [r5, #41]	; 0x29
 80015c2:	fa1f fc83 	uxth.w	ip, r3
 80015c6:	2a00      	cmp	r2, #0
 80015c8:	d143      	bne.n	8001652 <HAL_PCD_IRQHandler+0x846>
 80015ca:	f8b0 e050 	ldrh.w	lr, [r0, #80]	; 0x50
 80015ce:	f200 420c 	addw	r2, r0, #1036	; 0x40c
 80015d2:	fa1f fe8e 	uxth.w	lr, lr
 80015d6:	4472      	add	r2, lr
 80015d8:	0109      	lsls	r1, r1, #4
 80015da:	f832 e001 	ldrh.w	lr, [r2, r1]
 80015de:	2b3e      	cmp	r3, #62	; 0x3e
 80015e0:	f3ce 0e09 	ubfx	lr, lr, #0, #10
 80015e4:	f822 e001 	strh.w	lr, [r2, r1]
 80015e8:	d91b      	bls.n	8001622 <HAL_PCD_IRQHandler+0x816>
 80015ea:	ea4f 1e53 	mov.w	lr, r3, lsr #5
 80015ee:	06db      	lsls	r3, r3, #27
 80015f0:	5a53      	ldrh	r3, [r2, r1]
 80015f2:	bf08      	it	eq
 80015f4:	f10e 3eff 	addeq.w	lr, lr, #4294967295
 80015f8:	b29b      	uxth	r3, r3
 80015fa:	ea43 238e 	orr.w	r3, r3, lr, lsl #10
 80015fe:	ea43 0308 	orr.w	r3, r3, r8
 8001602:	b29b      	uxth	r3, r3
 8001604:	e012      	b.n	800162c <HAL_PCD_IRQHandler+0x820>
 8001606:	f1be 0f00 	cmp.w	lr, #0
 800160a:	d103      	bne.n	8001614 <HAL_PCD_IRQHandler+0x808>
 800160c:	4613      	mov	r3, r2
 800160e:	f88c e04c 	strb.w	lr, [ip, #76]	; 0x4c
 8001612:	e7d4      	b.n	80015be <HAL_PCD_IRQHandler+0x7b2>
 8001614:	2300      	movs	r3, #0
 8001616:	f8cc 3048 	str.w	r3, [ip, #72]	; 0x48
 800161a:	f88c 304c 	strb.w	r3, [ip, #76]	; 0x4c
 800161e:	4673      	mov	r3, lr
 8001620:	e7cd      	b.n	80015be <HAL_PCD_IRQHandler+0x7b2>
 8001622:	b95b      	cbnz	r3, 800163c <HAL_PCD_IRQHandler+0x830>
 8001624:	5a53      	ldrh	r3, [r2, r1]
 8001626:	b29b      	uxth	r3, r3
 8001628:	f443 4300 	orr.w	r3, r3, #32768	; 0x8000
 800162c:	5253      	strh	r3, [r2, r1]
 800162e:	2328      	movs	r3, #40	; 0x28
 8001630:	fb03 4606 	mla	r6, r3, r6, r4
 8001634:	4639      	mov	r1, r7
 8001636:	4663      	mov	r3, ip
 8001638:	8e72      	ldrh	r2, [r6, #50]	; 0x32
 800163a:	e706      	b.n	800144a <HAL_PCD_IRQHandler+0x63e>
 800163c:	ea4f 0e53 	mov.w	lr, r3, lsr #1
 8001640:	07db      	lsls	r3, r3, #31
 8001642:	5a53      	ldrh	r3, [r2, r1]
 8001644:	bf48      	it	mi
 8001646:	f10e 0e01 	addmi.w	lr, lr, #1
 800164a:	b29b      	uxth	r3, r3
 800164c:	ea43 238e 	orr.w	r3, r3, lr, lsl #10
 8001650:	e7d7      	b.n	8001602 <HAL_PCD_IRQHandler+0x7f6>
 8001652:	2a01      	cmp	r2, #1
 8001654:	d1eb      	bne.n	800162e <HAL_PCD_IRQHandler+0x822>
 8001656:	f8b0 2050 	ldrh.w	r2, [r0, #80]	; 0x50
 800165a:	f200 430c 	addw	r3, r0, #1036	; 0x40c
 800165e:	b292      	uxth	r2, r2
 8001660:	4413      	add	r3, r2
 8001662:	010a      	lsls	r2, r1, #4
 8001664:	f823 c002 	strh.w	ip, [r3, r2]
 8001668:	e7e1      	b.n	800162e <HAL_PCD_IRQHandler+0x822>
 800166a:	0546      	lsls	r6, r0, #21
 800166c:	d512      	bpl.n	8001694 <HAL_PCD_IRQHandler+0x888>
 800166e:	6822      	ldr	r2, [r4, #0]
 8001670:	4620      	mov	r0, r4
 8001672:	f8b2 3044 	ldrh.w	r3, [r2, #68]	; 0x44
 8001676:	f423 6380 	bic.w	r3, r3, #1024	; 0x400
 800167a:	041b      	lsls	r3, r3, #16
 800167c:	0c1b      	lsrs	r3, r3, #16
 800167e:	f8a2 3044 	strh.w	r3, [r2, #68]	; 0x44
 8001682:	f002 fb4a 	bl	8003d1a <HAL_PCD_ResetCallback>
 8001686:	4629      	mov	r1, r5
 8001688:	4620      	mov	r0, r4
 800168a:	b005      	add	sp, #20
 800168c:	e8bd 4ff0 	ldmia.w	sp!, {r4, r5, r6, r7, r8, r9, sl, fp, lr}
 8001690:	f7ff bba8 	b.w	8000de4 <HAL_PCD_SetAddress>
 8001694:	0441      	lsls	r1, r0, #17
 8001696:	d50a      	bpl.n	80016ae <HAL_PCD_IRQHandler+0x8a2>
 8001698:	6822      	ldr	r2, [r4, #0]
 800169a:	f8b2 3044 	ldrh.w	r3, [r2, #68]	; 0x44
 800169e:	f423 4380 	bic.w	r3, r3, #16384	; 0x4000
 80016a2:	041b      	lsls	r3, r3, #16
 80016a4:	0c1b      	lsrs	r3, r3, #16
 80016a6:	f8a2 3044 	strh.w	r3, [r2, #68]	; 0x44
 80016aa:	f7ff bbc3 	b.w	8000e34 <HAL_PCD_IRQHandler+0x28>
 80016ae:	0482      	lsls	r2, r0, #18
 80016b0:	d505      	bpl.n	80016be <HAL_PCD_IRQHandler+0x8b2>
 80016b2:	6822      	ldr	r2, [r4, #0]
 80016b4:	f8b2 3044 	ldrh.w	r3, [r2, #68]	; 0x44
 80016b8:	f423 5300 	bic.w	r3, r3, #8192	; 0x2000
 80016bc:	e7f1      	b.n	80016a2 <HAL_PCD_IRQHandler+0x896>
 80016be:	04c3      	lsls	r3, r0, #19
 80016c0:	d519      	bpl.n	80016f6 <HAL_PCD_IRQHandler+0x8ea>
 80016c2:	6822      	ldr	r2, [r4, #0]
 80016c4:	4620      	mov	r0, r4
 80016c6:	f8b2 3040 	ldrh.w	r3, [r2, #64]	; 0x40
 80016ca:	f023 0304 	bic.w	r3, r3, #4
 80016ce:	041b      	lsls	r3, r3, #16
 80016d0:	0c1b      	lsrs	r3, r3, #16
 80016d2:	f8a2 3040 	strh.w	r3, [r2, #64]	; 0x40
 80016d6:	f8b2 3040 	ldrh.w	r3, [r2, #64]	; 0x40
 80016da:	f023 0308 	bic.w	r3, r3, #8
 80016de:	041b      	lsls	r3, r3, #16
 80016e0:	0c1b      	lsrs	r3, r3, #16
 80016e2:	f8a2 3040 	strh.w	r3, [r2, #64]	; 0x40
 80016e6:	f002 fb3b 	bl	8003d60 <HAL_PCD_ResumeCallback>
 80016ea:	6822      	ldr	r2, [r4, #0]
 80016ec:	f8b2 3044 	ldrh.w	r3, [r2, #68]	; 0x44
 80016f0:	f423 5380 	bic.w	r3, r3, #4096	; 0x1000
 80016f4:	e7d5      	b.n	80016a2 <HAL_PCD_IRQHandler+0x896>
 80016f6:	0507      	lsls	r7, r0, #20
 80016f8:	d548      	bpl.n	800178c <HAL_PCD_IRQHandler+0x980>
 80016fa:	4668      	mov	r0, sp
 80016fc:	6822      	ldr	r2, [r4, #0]
 80016fe:	4606      	mov	r6, r0
 8001700:	4611      	mov	r1, r2
 8001702:	4613      	mov	r3, r2
 8001704:	f102 0520 	add.w	r5, r2, #32
 8001708:	f833 7b04 	ldrh.w	r7, [r3], #4
 800170c:	429d      	cmp	r5, r3
 800170e:	f826 7b02 	strh.w	r7, [r6], #2
 8001712:	d1f9      	bne.n	8001708 <HAL_PCD_IRQHandler+0x8fc>
 8001714:	f8b2 3040 	ldrh.w	r3, [r2, #64]	; 0x40
 8001718:	b29b      	uxth	r3, r3
 800171a:	f043 0301 	orr.w	r3, r3, #1
 800171e:	f8a2 3040 	strh.w	r3, [r2, #64]	; 0x40
 8001722:	f8b2 3040 	ldrh.w	r3, [r2, #64]	; 0x40
 8001726:	f023 0301 	bic.w	r3, r3, #1
 800172a:	041b      	lsls	r3, r3, #16
 800172c:	0c1b      	lsrs	r3, r3, #16
 800172e:	f8a2 3040 	strh.w	r3, [r2, #64]	; 0x40
 8001732:	f8b2 3044 	ldrh.w	r3, [r2, #68]	; 0x44
 8001736:	055e      	lsls	r6, r3, #21
 8001738:	d5fb      	bpl.n	8001732 <HAL_PCD_IRQHandler+0x926>
 800173a:	f8b2 3044 	ldrh.w	r3, [r2, #68]	; 0x44
 800173e:	f423 6380 	bic.w	r3, r3, #1024	; 0x400
 8001742:	041b      	lsls	r3, r3, #16
 8001744:	0c1b      	lsrs	r3, r3, #16
 8001746:	f8a2 3044 	strh.w	r3, [r2, #68]	; 0x44
 800174a:	f830 3b02 	ldrh.w	r3, [r0], #2
 800174e:	f821 3b04 	strh.w	r3, [r1], #4
 8001752:	428d      	cmp	r5, r1
 8001754:	d1f9      	bne.n	800174a <HAL_PCD_IRQHandler+0x93e>
 8001756:	f8b2 3040 	ldrh.w	r3, [r2, #64]	; 0x40
 800175a:	4620      	mov	r0, r4
 800175c:	b29b      	uxth	r3, r3
 800175e:	f043 0308 	orr.w	r3, r3, #8
 8001762:	f8a2 3040 	strh.w	r3, [r2, #64]	; 0x40
 8001766:	f8b2 3044 	ldrh.w	r3, [r2, #68]	; 0x44
 800176a:	f423 6300 	bic.w	r3, r3, #2048	; 0x800
 800176e:	041b      	lsls	r3, r3, #16
 8001770:	0c1b      	lsrs	r3, r3, #16
 8001772:	f8a2 3044 	strh.w	r3, [r2, #68]	; 0x44
 8001776:	f8b2 3040 	ldrh.w	r3, [r2, #64]	; 0x40
 800177a:	b29b      	uxth	r3, r3
 800177c:	f043 0304 	orr.w	r3, r3, #4
 8001780:	f8a2 3040 	strh.w	r3, [r2, #64]	; 0x40
 8001784:	f002 fadc 	bl	8003d40 <HAL_PCD_SuspendCallback>
 8001788:	f7ff bb54 	b.w	8000e34 <HAL_PCD_IRQHandler+0x28>
 800178c:	0582      	lsls	r2, r0, #22
 800178e:	d50d      	bpl.n	80017ac <HAL_PCD_IRQHandler+0x9a0>
 8001790:	6822      	ldr	r2, [r4, #0]
 8001792:	4620      	mov	r0, r4
 8001794:	f8b2 3044 	ldrh.w	r3, [r2, #68]	; 0x44
 8001798:	f423 7300 	bic.w	r3, r3, #512	; 0x200
 800179c:	041b      	lsls	r3, r3, #16
 800179e:	0c1b      	lsrs	r3, r3, #16
 80017a0:	f8a2 3044 	strh.w	r3, [r2, #68]	; 0x44
 80017a4:	f002 fab5 	bl	8003d12 <HAL_PCD_SOFCallback>
 80017a8:	f7ff bb44 	b.w	8000e34 <HAL_PCD_IRQHandler+0x28>
 80017ac:	05c3      	lsls	r3, r0, #23
 80017ae:	f57f ab41 	bpl.w	8000e34 <HAL_PCD_IRQHandler+0x28>
 80017b2:	6822      	ldr	r2, [r4, #0]
 80017b4:	f8b2 3044 	ldrh.w	r3, [r2, #68]	; 0x44
 80017b8:	f423 7380 	bic.w	r3, r3, #256	; 0x100
 80017bc:	e771      	b.n	80016a2 <HAL_PCD_IRQHandler+0x896>
 80017be:	bf00      	nop

080017c0 <HAL_PCD_EP_Open>:
 80017c0:	f011 0f80 	tst.w	r1, #128	; 0x80
 80017c4:	b570      	push	{r4, r5, r6, lr}
 80017c6:	4605      	mov	r5, r0
 80017c8:	f001 0007 	and.w	r0, r1, #7
 80017cc:	f04f 0128 	mov.w	r1, #40	; 0x28
 80017d0:	d01a      	beq.n	8001808 <HAL_PCD_EP_Open+0x48>
 80017d2:	2401      	movs	r4, #1
 80017d4:	fb00 1101 	mla	r1, r0, r1, r1
 80017d8:	4429      	add	r1, r5
 80017da:	704c      	strb	r4, [r1, #1]
 80017dc:	2b02      	cmp	r3, #2
 80017de:	70cb      	strb	r3, [r1, #3]
 80017e0:	bf08      	it	eq
 80017e2:	2300      	moveq	r3, #0
 80017e4:	7008      	strb	r0, [r1, #0]
 80017e6:	bf08      	it	eq
 80017e8:	710b      	strbeq	r3, [r1, #4]
 80017ea:	610a      	str	r2, [r1, #16]
 80017ec:	f895 32a8 	ldrb.w	r3, [r5, #680]	; 0x2a8
 80017f0:	2b01      	cmp	r3, #1
 80017f2:	d013      	beq.n	800181c <HAL_PCD_EP_Open+0x5c>
 80017f4:	2301      	movs	r3, #1
 80017f6:	6828      	ldr	r0, [r5, #0]
 80017f8:	f885 32a8 	strb.w	r3, [r5, #680]	; 0x2a8
 80017fc:	f000 ff2c 	bl	8002658 <USB_ActivateEndpoint>
 8001800:	2000      	movs	r0, #0
 8001802:	f885 02a8 	strb.w	r0, [r5, #680]	; 0x2a8
 8001806:	bd70      	pop	{r4, r5, r6, pc}
 8001808:	2600      	movs	r6, #0
 800180a:	fb01 f400 	mul.w	r4, r1, r0
 800180e:	f504 71b4 	add.w	r1, r4, #360	; 0x168
 8001812:	442c      	add	r4, r5
 8001814:	4429      	add	r1, r5
 8001816:	f884 6169 	strb.w	r6, [r4, #361]	; 0x169
 800181a:	e7df      	b.n	80017dc <HAL_PCD_EP_Open+0x1c>
 800181c:	2002      	movs	r0, #2
 800181e:	e7f2      	b.n	8001806 <HAL_PCD_EP_Open+0x46>

08001820 <HAL_PCD_EP_Close>:
 8001820:	f011 0f80 	tst.w	r1, #128	; 0x80
 8001824:	b510      	push	{r4, lr}
 8001826:	f001 0207 	and.w	r2, r1, #7
 800182a:	4604      	mov	r4, r0
 800182c:	f04f 0128 	mov.w	r1, #40	; 0x28
 8001830:	d013      	beq.n	800185a <HAL_PCD_EP_Close+0x3a>
 8001832:	2301      	movs	r3, #1
 8001834:	fb02 1101 	mla	r1, r2, r1, r1
 8001838:	4401      	add	r1, r0
 800183a:	704b      	strb	r3, [r1, #1]
 800183c:	700a      	strb	r2, [r1, #0]
 800183e:	f894 32a8 	ldrb.w	r3, [r4, #680]	; 0x2a8
 8001842:	2b01      	cmp	r3, #1
 8001844:	d013      	beq.n	800186e <HAL_PCD_EP_Close+0x4e>
 8001846:	2301      	movs	r3, #1
 8001848:	6820      	ldr	r0, [r4, #0]
 800184a:	f884 32a8 	strb.w	r3, [r4, #680]	; 0x2a8
 800184e:	f001 f863 	bl	8002918 <USB_DeactivateEndpoint>
 8001852:	2000      	movs	r0, #0
 8001854:	f884 02a8 	strb.w	r0, [r4, #680]	; 0x2a8
 8001858:	bd10      	pop	{r4, pc}
 800185a:	fb01 f302 	mul.w	r3, r1, r2
 800185e:	f503 71b4 	add.w	r1, r3, #360	; 0x168
 8001862:	4401      	add	r1, r0
 8001864:	4403      	add	r3, r0
 8001866:	2000      	movs	r0, #0
 8001868:	f883 0169 	strb.w	r0, [r3, #361]	; 0x169
 800186c:	e7e6      	b.n	800183c <HAL_PCD_EP_Close+0x1c>
 800186e:	2002      	movs	r0, #2
 8001870:	e7f2      	b.n	8001858 <HAL_PCD_EP_Close+0x38>

08001872 <HAL_PCD_EP_Receive>:
 8001872:	b570      	push	{r4, r5, r6, lr}
 8001874:	2428      	movs	r4, #40	; 0x28
 8001876:	2600      	movs	r6, #0
 8001878:	f001 0107 	and.w	r1, r1, #7
 800187c:	434c      	muls	r4, r1
 800187e:	1905      	adds	r5, r0, r4
 8001880:	f885 1168 	strb.w	r1, [r5, #360]	; 0x168
 8001884:	f504 71b4 	add.w	r1, r4, #360	; 0x168
 8001888:	4401      	add	r1, r0
 800188a:	e9c5 235f 	strd	r2, r3, [r5, #380]	; 0x17c
 800188e:	f8c5 6184 	str.w	r6, [r5, #388]	; 0x184
 8001892:	f885 6169 	strb.w	r6, [r5, #361]	; 0x169
 8001896:	6800      	ldr	r0, [r0, #0]
 8001898:	f001 f99a 	bl	8002bd0 <USB_EPStartXfer>
 800189c:	4630      	mov	r0, r6
 800189e:	bd70      	pop	{r4, r5, r6, pc}

080018a0 <HAL_PCD_EP_GetRxCount>:
 80018a0:	2328      	movs	r3, #40	; 0x28
 80018a2:	f001 0107 	and.w	r1, r1, #7
 80018a6:	fb03 0001 	mla	r0, r3, r1, r0
 80018aa:	f8d0 0184 	ldr.w	r0, [r0, #388]	; 0x184
 80018ae:	4770      	bx	lr

080018b0 <HAL_PCD_EP_Transmit>:
 80018b0:	b570      	push	{r4, r5, r6, lr}
 80018b2:	f001 0507 	and.w	r5, r1, #7
 80018b6:	2128      	movs	r1, #40	; 0x28
 80018b8:	fb01 0405 	mla	r4, r1, r5, r0
 80018bc:	2600      	movs	r6, #0
 80018be:	e9c4 230f 	strd	r2, r3, [r4, #60]	; 0x3c
 80018c2:	2201      	movs	r2, #1
 80018c4:	fb05 1101 	mla	r1, r5, r1, r1
 80018c8:	f884 204c 	strb.w	r2, [r4, #76]	; 0x4c
 80018cc:	4401      	add	r1, r0
 80018ce:	64a3      	str	r3, [r4, #72]	; 0x48
 80018d0:	6466      	str	r6, [r4, #68]	; 0x44
 80018d2:	f884 2029 	strb.w	r2, [r4, #41]	; 0x29
 80018d6:	f884 5028 	strb.w	r5, [r4, #40]	; 0x28
 80018da:	6800      	ldr	r0, [r0, #0]
 80018dc:	f001 f978 	bl	8002bd0 <USB_EPStartXfer>
 80018e0:	4630      	mov	r0, r6
 80018e2:	bd70      	pop	{r4, r5, r6, pc}

080018e4 <HAL_PCD_EP_SetStall>:
 80018e4:	b538      	push	{r3, r4, r5, lr}
 80018e6:	6843      	ldr	r3, [r0, #4]
 80018e8:	f001 0507 	and.w	r5, r1, #7
 80018ec:	429d      	cmp	r5, r3
 80018ee:	4604      	mov	r4, r0
 80018f0:	d828      	bhi.n	8001944 <HAL_PCD_EP_SetStall+0x60>
 80018f2:	f011 0f80 	tst.w	r1, #128	; 0x80
 80018f6:	f04f 0328 	mov.w	r3, #40	; 0x28
 80018fa:	d01a      	beq.n	8001932 <HAL_PCD_EP_SetStall+0x4e>
 80018fc:	fb05 3303 	mla	r3, r5, r3, r3
 8001900:	18c1      	adds	r1, r0, r3
 8001902:	2301      	movs	r3, #1
 8001904:	704b      	strb	r3, [r1, #1]
 8001906:	2301      	movs	r3, #1
 8001908:	700d      	strb	r5, [r1, #0]
 800190a:	708b      	strb	r3, [r1, #2]
 800190c:	f894 22a8 	ldrb.w	r2, [r4, #680]	; 0x2a8
 8001910:	429a      	cmp	r2, r3
 8001912:	d019      	beq.n	8001948 <HAL_PCD_EP_SetStall+0x64>
 8001914:	6820      	ldr	r0, [r4, #0]
 8001916:	f884 32a8 	strb.w	r3, [r4, #680]	; 0x2a8
 800191a:	f001 f8d0 	bl	8002abe <USB_EPSetStall>
 800191e:	b925      	cbnz	r5, 800192a <HAL_PCD_EP_SetStall+0x46>
 8001920:	6820      	ldr	r0, [r4, #0]
 8001922:	f504 712c 	add.w	r1, r4, #688	; 0x2b0
 8001926:	f001 f941 	bl	8002bac <USB_EP0_OutStart>
 800192a:	2000      	movs	r0, #0
 800192c:	f884 02a8 	strb.w	r0, [r4, #680]	; 0x2a8
 8001930:	bd38      	pop	{r3, r4, r5, pc}
 8001932:	2200      	movs	r2, #0
 8001934:	434b      	muls	r3, r1
 8001936:	f503 71b4 	add.w	r1, r3, #360	; 0x168
 800193a:	4403      	add	r3, r0
 800193c:	4401      	add	r1, r0
 800193e:	f883 2169 	strb.w	r2, [r3, #361]	; 0x169
 8001942:	e7e0      	b.n	8001906 <HAL_PCD_EP_SetStall+0x22>
 8001944:	2001      	movs	r0, #1
 8001946:	e7f3      	b.n	8001930 <HAL_PCD_EP_SetStall+0x4c>
 8001948:	2002      	movs	r0, #2
 800194a:	e7f1      	b.n	8001930 <HAL_PCD_EP_SetStall+0x4c>

0800194c <HAL_PCD_EP_ClrStall>:
 800194c:	b538      	push	{r3, r4, r5, lr}
 800194e:	6843      	ldr	r3, [r0, #4]
 8001950:	f001 020f 	and.w	r2, r1, #15
 8001954:	429a      	cmp	r2, r3
 8001956:	4604      	mov	r4, r0
 8001958:	d826      	bhi.n	80019a8 <HAL_PCD_EP_ClrStall+0x5c>
 800195a:	f011 0f80 	tst.w	r1, #128	; 0x80
 800195e:	f001 0207 	and.w	r2, r1, #7
 8001962:	f04f 0128 	mov.w	r1, #40	; 0x28
 8001966:	d015      	beq.n	8001994 <HAL_PCD_EP_ClrStall+0x48>
 8001968:	2301      	movs	r3, #1
 800196a:	fb02 1101 	mla	r1, r2, r1, r1
 800196e:	4401      	add	r1, r0
 8001970:	704b      	strb	r3, [r1, #1]
 8001972:	2500      	movs	r5, #0
 8001974:	700a      	strb	r2, [r1, #0]
 8001976:	708d      	strb	r5, [r1, #2]
 8001978:	f894 32a8 	ldrb.w	r3, [r4, #680]	; 0x2a8
 800197c:	2b01      	cmp	r3, #1
 800197e:	d015      	beq.n	80019ac <HAL_PCD_EP_ClrStall+0x60>
 8001980:	2301      	movs	r3, #1
 8001982:	6820      	ldr	r0, [r4, #0]
 8001984:	f884 32a8 	strb.w	r3, [r4, #680]	; 0x2a8
 8001988:	f001 f8b9 	bl	8002afe <USB_EPClearStall>
 800198c:	4628      	mov	r0, r5
 800198e:	f884 52a8 	strb.w	r5, [r4, #680]	; 0x2a8
 8001992:	bd38      	pop	{r3, r4, r5, pc}
 8001994:	fb01 f302 	mul.w	r3, r1, r2
 8001998:	f503 71b4 	add.w	r1, r3, #360	; 0x168
 800199c:	4401      	add	r1, r0
 800199e:	4403      	add	r3, r0
 80019a0:	2000      	movs	r0, #0
 80019a2:	f883 0169 	strb.w	r0, [r3, #361]	; 0x169
 80019a6:	e7e4      	b.n	8001972 <HAL_PCD_EP_ClrStall+0x26>
 80019a8:	2001      	movs	r0, #1
 80019aa:	e7f2      	b.n	8001992 <HAL_PCD_EP_ClrStall+0x46>
 80019ac:	2002      	movs	r0, #2
 80019ae:	e7f0      	b.n	8001992 <HAL_PCD_EP_ClrStall+0x46>

080019b0 <HAL_PCDEx_PMAConfig>:
 80019b0:	b510      	push	{r4, lr}
 80019b2:	2428      	movs	r4, #40	; 0x28
 80019b4:	f011 0f80 	tst.w	r1, #128	; 0x80
 80019b8:	bf1b      	ittet	ne
 80019ba:	f001 0107 	andne.w	r1, r1, #7
 80019be:	fb01 4404 	mlane	r4, r1, r4, r4
 80019c2:	fb04 0001 	mlaeq	r0, r4, r1, r0
 80019c6:	1900      	addne	r0, r0, r4
 80019c8:	bf08      	it	eq
 80019ca:	f500 70b4 	addeq.w	r0, r0, #360	; 0x168
 80019ce:	b299      	uxth	r1, r3
 80019d0:	b91a      	cbnz	r2, 80019da <HAL_PCDEx_PMAConfig+0x2a>
 80019d2:	7302      	strb	r2, [r0, #12]
 80019d4:	80c1      	strh	r1, [r0, #6]
 80019d6:	2000      	movs	r0, #0
 80019d8:	bd10      	pop	{r4, pc}
 80019da:	2201      	movs	r2, #1
 80019dc:	6083      	str	r3, [r0, #8]
 80019de:	7302      	strb	r2, [r0, #12]
 80019e0:	e7f9      	b.n	80019d6 <HAL_PCDEx_PMAConfig+0x26>
	...

080019e4 <HAL_RCC_OscConfig>:
 80019e4:	e92d 41f3 	stmdb	sp!, {r0, r1, r4, r5, r6, r7, r8, lr}
 80019e8:	4605      	mov	r5, r0
 80019ea:	b338      	cbz	r0, 8001a3c <HAL_RCC_OscConfig+0x58>
 80019ec:	6803      	ldr	r3, [r0, #0]
 80019ee:	07db      	lsls	r3, r3, #31
 80019f0:	d410      	bmi.n	8001a14 <HAL_RCC_OscConfig+0x30>
 80019f2:	682b      	ldr	r3, [r5, #0]
 80019f4:	079f      	lsls	r7, r3, #30
 80019f6:	d45e      	bmi.n	8001ab6 <HAL_RCC_OscConfig+0xd2>
 80019f8:	682b      	ldr	r3, [r5, #0]
 80019fa:	0719      	lsls	r1, r3, #28
 80019fc:	f100 8095 	bmi.w	8001b2a <HAL_RCC_OscConfig+0x146>
 8001a00:	682b      	ldr	r3, [r5, #0]
 8001a02:	075a      	lsls	r2, r3, #29
 8001a04:	f100 80c1 	bmi.w	8001b8a <HAL_RCC_OscConfig+0x1a6>
 8001a08:	69e8      	ldr	r0, [r5, #28]
 8001a0a:	2800      	cmp	r0, #0
 8001a0c:	f040 812c 	bne.w	8001c68 <HAL_RCC_OscConfig+0x284>
 8001a10:	2000      	movs	r0, #0
 8001a12:	e029      	b.n	8001a68 <HAL_RCC_OscConfig+0x84>
 8001a14:	4c90      	ldr	r4, [pc, #576]	; (8001c58 <HAL_RCC_OscConfig+0x274>)
 8001a16:	6863      	ldr	r3, [r4, #4]
 8001a18:	f003 030c 	and.w	r3, r3, #12
 8001a1c:	2b04      	cmp	r3, #4
 8001a1e:	d007      	beq.n	8001a30 <HAL_RCC_OscConfig+0x4c>
 8001a20:	6863      	ldr	r3, [r4, #4]
 8001a22:	f003 030c 	and.w	r3, r3, #12
 8001a26:	2b08      	cmp	r3, #8
 8001a28:	d10a      	bne.n	8001a40 <HAL_RCC_OscConfig+0x5c>
 8001a2a:	6863      	ldr	r3, [r4, #4]
 8001a2c:	03de      	lsls	r6, r3, #15
 8001a2e:	d507      	bpl.n	8001a40 <HAL_RCC_OscConfig+0x5c>
 8001a30:	6823      	ldr	r3, [r4, #0]
 8001a32:	039c      	lsls	r4, r3, #14
 8001a34:	d5dd      	bpl.n	80019f2 <HAL_RCC_OscConfig+0xe>
 8001a36:	686b      	ldr	r3, [r5, #4]
 8001a38:	2b00      	cmp	r3, #0
 8001a3a:	d1da      	bne.n	80019f2 <HAL_RCC_OscConfig+0xe>
 8001a3c:	2001      	movs	r0, #1
 8001a3e:	e013      	b.n	8001a68 <HAL_RCC_OscConfig+0x84>
 8001a40:	686b      	ldr	r3, [r5, #4]
 8001a42:	f5b3 3f80 	cmp.w	r3, #65536	; 0x10000
 8001a46:	d112      	bne.n	8001a6e <HAL_RCC_OscConfig+0x8a>
 8001a48:	6823      	ldr	r3, [r4, #0]
 8001a4a:	f443 3380 	orr.w	r3, r3, #65536	; 0x10000
 8001a4e:	6023      	str	r3, [r4, #0]
 8001a50:	f7fe ff82 	bl	8000958 <HAL_GetTick>
 8001a54:	4606      	mov	r6, r0
 8001a56:	6823      	ldr	r3, [r4, #0]
 8001a58:	0398      	lsls	r0, r3, #14
 8001a5a:	d4ca      	bmi.n	80019f2 <HAL_RCC_OscConfig+0xe>
 8001a5c:	f7fe ff7c 	bl	8000958 <HAL_GetTick>
 8001a60:	1b80      	subs	r0, r0, r6
 8001a62:	2864      	cmp	r0, #100	; 0x64
 8001a64:	d9f7      	bls.n	8001a56 <HAL_RCC_OscConfig+0x72>
 8001a66:	2003      	movs	r0, #3
 8001a68:	b002      	add	sp, #8
 8001a6a:	e8bd 81f0 	ldmia.w	sp!, {r4, r5, r6, r7, r8, pc}
 8001a6e:	b99b      	cbnz	r3, 8001a98 <HAL_RCC_OscConfig+0xb4>
 8001a70:	6823      	ldr	r3, [r4, #0]
 8001a72:	f423 3380 	bic.w	r3, r3, #65536	; 0x10000
 8001a76:	6023      	str	r3, [r4, #0]
 8001a78:	6823      	ldr	r3, [r4, #0]
 8001a7a:	f423 2380 	bic.w	r3, r3, #262144	; 0x40000
 8001a7e:	6023      	str	r3, [r4, #0]
 8001a80:	f7fe ff6a 	bl	8000958 <HAL_GetTick>
 8001a84:	4606      	mov	r6, r0
 8001a86:	6823      	ldr	r3, [r4, #0]
 8001a88:	0399      	lsls	r1, r3, #14
 8001a8a:	d5b2      	bpl.n	80019f2 <HAL_RCC_OscConfig+0xe>
 8001a8c:	f7fe ff64 	bl	8000958 <HAL_GetTick>
 8001a90:	1b80      	subs	r0, r0, r6
 8001a92:	2864      	cmp	r0, #100	; 0x64
 8001a94:	d9f7      	bls.n	8001a86 <HAL_RCC_OscConfig+0xa2>
 8001a96:	e7e6      	b.n	8001a66 <HAL_RCC_OscConfig+0x82>
 8001a98:	f5b3 2fa0 	cmp.w	r3, #327680	; 0x50000
 8001a9c:	6823      	ldr	r3, [r4, #0]
 8001a9e:	d103      	bne.n	8001aa8 <HAL_RCC_OscConfig+0xc4>
 8001aa0:	f443 2380 	orr.w	r3, r3, #262144	; 0x40000
 8001aa4:	6023      	str	r3, [r4, #0]
 8001aa6:	e7cf      	b.n	8001a48 <HAL_RCC_OscConfig+0x64>
 8001aa8:	f423 3380 	bic.w	r3, r3, #65536	; 0x10000
 8001aac:	6023      	str	r3, [r4, #0]
 8001aae:	6823      	ldr	r3, [r4, #0]
 8001ab0:	f423 2380 	bic.w	r3, r3, #262144	; 0x40000
 8001ab4:	e7cb      	b.n	8001a4e <HAL_RCC_OscConfig+0x6a>
 8001ab6:	4c68      	ldr	r4, [pc, #416]	; (8001c58 <HAL_RCC_OscConfig+0x274>)
 8001ab8:	6863      	ldr	r3, [r4, #4]
 8001aba:	f013 0f0c 	tst.w	r3, #12
 8001abe:	d007      	beq.n	8001ad0 <HAL_RCC_OscConfig+0xec>
 8001ac0:	6863      	ldr	r3, [r4, #4]
 8001ac2:	f003 030c 	and.w	r3, r3, #12
 8001ac6:	2b08      	cmp	r3, #8
 8001ac8:	d110      	bne.n	8001aec <HAL_RCC_OscConfig+0x108>
 8001aca:	6863      	ldr	r3, [r4, #4]
 8001acc:	03da      	lsls	r2, r3, #15
 8001ace:	d40d      	bmi.n	8001aec <HAL_RCC_OscConfig+0x108>
 8001ad0:	6823      	ldr	r3, [r4, #0]
 8001ad2:	079b      	lsls	r3, r3, #30
 8001ad4:	d502      	bpl.n	8001adc <HAL_RCC_OscConfig+0xf8>
 8001ad6:	692b      	ldr	r3, [r5, #16]
 8001ad8:	2b01      	cmp	r3, #1
 8001ada:	d1af      	bne.n	8001a3c <HAL_RCC_OscConfig+0x58>
 8001adc:	6823      	ldr	r3, [r4, #0]
 8001ade:	696a      	ldr	r2, [r5, #20]
 8001ae0:	f023 03f8 	bic.w	r3, r3, #248	; 0xf8
 8001ae4:	ea43 03c2 	orr.w	r3, r3, r2, lsl #3
 8001ae8:	6023      	str	r3, [r4, #0]
 8001aea:	e785      	b.n	80019f8 <HAL_RCC_OscConfig+0x14>
 8001aec:	692a      	ldr	r2, [r5, #16]
 8001aee:	4b5b      	ldr	r3, [pc, #364]	; (8001c5c <HAL_RCC_OscConfig+0x278>)
 8001af0:	b16a      	cbz	r2, 8001b0e <HAL_RCC_OscConfig+0x12a>
 8001af2:	2201      	movs	r2, #1
 8001af4:	601a      	str	r2, [r3, #0]
 8001af6:	f7fe ff2f 	bl	8000958 <HAL_GetTick>
 8001afa:	4606      	mov	r6, r0
 8001afc:	6823      	ldr	r3, [r4, #0]
 8001afe:	079f      	lsls	r7, r3, #30
 8001b00:	d4ec      	bmi.n	8001adc <HAL_RCC_OscConfig+0xf8>
 8001b02:	f7fe ff29 	bl	8000958 <HAL_GetTick>
 8001b06:	1b80      	subs	r0, r0, r6
 8001b08:	2802      	cmp	r0, #2
 8001b0a:	d9f7      	bls.n	8001afc <HAL_RCC_OscConfig+0x118>
 8001b0c:	e7ab      	b.n	8001a66 <HAL_RCC_OscConfig+0x82>
 8001b0e:	601a      	str	r2, [r3, #0]
 8001b10:	f7fe ff22 	bl	8000958 <HAL_GetTick>
 8001b14:	4606      	mov	r6, r0
 8001b16:	6823      	ldr	r3, [r4, #0]
 8001b18:	0798      	lsls	r0, r3, #30
 8001b1a:	f57f af6d 	bpl.w	80019f8 <HAL_RCC_OscConfig+0x14>
 8001b1e:	f7fe ff1b 	bl	8000958 <HAL_GetTick>
 8001b22:	1b80      	subs	r0, r0, r6
 8001b24:	2802      	cmp	r0, #2
 8001b26:	d9f6      	bls.n	8001b16 <HAL_RCC_OscConfig+0x132>
 8001b28:	e79d      	b.n	8001a66 <HAL_RCC_OscConfig+0x82>
 8001b2a:	69aa      	ldr	r2, [r5, #24]
 8001b2c:	4e4a      	ldr	r6, [pc, #296]	; (8001c58 <HAL_RCC_OscConfig+0x274>)
 8001b2e:	4b4b      	ldr	r3, [pc, #300]	; (8001c5c <HAL_RCC_OscConfig+0x278>)
 8001b30:	b1e2      	cbz	r2, 8001b6c <HAL_RCC_OscConfig+0x188>
 8001b32:	2201      	movs	r2, #1
 8001b34:	f8c3 2480 	str.w	r2, [r3, #1152]	; 0x480
 8001b38:	f7fe ff0e 	bl	8000958 <HAL_GetTick>
 8001b3c:	4604      	mov	r4, r0
 8001b3e:	6a73      	ldr	r3, [r6, #36]	; 0x24
 8001b40:	079b      	lsls	r3, r3, #30
 8001b42:	d50d      	bpl.n	8001b60 <HAL_RCC_OscConfig+0x17c>
 8001b44:	f44f 52fa 	mov.w	r2, #8000	; 0x1f40
 8001b48:	4b45      	ldr	r3, [pc, #276]	; (8001c60 <HAL_RCC_OscConfig+0x27c>)
 8001b4a:	681b      	ldr	r3, [r3, #0]
 8001b4c:	fbb3 f3f2 	udiv	r3, r3, r2
 8001b50:	9301      	str	r3, [sp, #4]
 8001b52:	bf00      	nop
 8001b54:	9b01      	ldr	r3, [sp, #4]
 8001b56:	1e5a      	subs	r2, r3, #1
 8001b58:	9201      	str	r2, [sp, #4]
 8001b5a:	2b00      	cmp	r3, #0
 8001b5c:	d1f9      	bne.n	8001b52 <HAL_RCC_OscConfig+0x16e>
 8001b5e:	e74f      	b.n	8001a00 <HAL_RCC_OscConfig+0x1c>
 8001b60:	f7fe fefa 	bl	8000958 <HAL_GetTick>
 8001b64:	1b00      	subs	r0, r0, r4
 8001b66:	2802      	cmp	r0, #2
 8001b68:	d9e9      	bls.n	8001b3e <HAL_RCC_OscConfig+0x15a>
 8001b6a:	e77c      	b.n	8001a66 <HAL_RCC_OscConfig+0x82>
 8001b6c:	f8c3 2480 	str.w	r2, [r3, #1152]	; 0x480
 8001b70:	f7fe fef2 	bl	8000958 <HAL_GetTick>
 8001b74:	4604      	mov	r4, r0
 8001b76:	6a73      	ldr	r3, [r6, #36]	; 0x24
 8001b78:	079f      	lsls	r7, r3, #30
 8001b7a:	f57f af41 	bpl.w	8001a00 <HAL_RCC_OscConfig+0x1c>
 8001b7e:	f7fe feeb 	bl	8000958 <HAL_GetTick>
 8001b82:	1b00      	subs	r0, r0, r4
 8001b84:	2802      	cmp	r0, #2
 8001b86:	d9f6      	bls.n	8001b76 <HAL_RCC_OscConfig+0x192>
 8001b88:	e76d      	b.n	8001a66 <HAL_RCC_OscConfig+0x82>
 8001b8a:	4c33      	ldr	r4, [pc, #204]	; (8001c58 <HAL_RCC_OscConfig+0x274>)
 8001b8c:	69e3      	ldr	r3, [r4, #28]
 8001b8e:	00d8      	lsls	r0, r3, #3
 8001b90:	d424      	bmi.n	8001bdc <HAL_RCC_OscConfig+0x1f8>
 8001b92:	2701      	movs	r7, #1
 8001b94:	69e3      	ldr	r3, [r4, #28]
 8001b96:	f043 5380 	orr.w	r3, r3, #268435456	; 0x10000000
 8001b9a:	61e3      	str	r3, [r4, #28]
 8001b9c:	69e3      	ldr	r3, [r4, #28]
 8001b9e:	f003 5380 	and.w	r3, r3, #268435456	; 0x10000000
 8001ba2:	9300      	str	r3, [sp, #0]
 8001ba4:	9b00      	ldr	r3, [sp, #0]
 8001ba6:	4e2f      	ldr	r6, [pc, #188]	; (8001c64 <HAL_RCC_OscConfig+0x280>)
 8001ba8:	6833      	ldr	r3, [r6, #0]
 8001baa:	05d9      	lsls	r1, r3, #23
 8001bac:	d518      	bpl.n	8001be0 <HAL_RCC_OscConfig+0x1fc>
 8001bae:	68eb      	ldr	r3, [r5, #12]
 8001bb0:	2b01      	cmp	r3, #1
 8001bb2:	d126      	bne.n	8001c02 <HAL_RCC_OscConfig+0x21e>
 8001bb4:	6a23      	ldr	r3, [r4, #32]
 8001bb6:	f043 0301 	orr.w	r3, r3, #1
 8001bba:	6223      	str	r3, [r4, #32]
 8001bbc:	f7fe fecc 	bl	8000958 <HAL_GetTick>
 8001bc0:	f241 3888 	movw	r8, #5000	; 0x1388
 8001bc4:	4606      	mov	r6, r0
 8001bc6:	6a23      	ldr	r3, [r4, #32]
 8001bc8:	079b      	lsls	r3, r3, #30
 8001bca:	d53f      	bpl.n	8001c4c <HAL_RCC_OscConfig+0x268>
 8001bcc:	2f00      	cmp	r7, #0
 8001bce:	f43f af1b 	beq.w	8001a08 <HAL_RCC_OscConfig+0x24>
 8001bd2:	69e3      	ldr	r3, [r4, #28]
 8001bd4:	f023 5380 	bic.w	r3, r3, #268435456	; 0x10000000
 8001bd8:	61e3      	str	r3, [r4, #28]
 8001bda:	e715      	b.n	8001a08 <HAL_RCC_OscConfig+0x24>
 8001bdc:	2700      	movs	r7, #0
 8001bde:	e7e2      	b.n	8001ba6 <HAL_RCC_OscConfig+0x1c2>
 8001be0:	6833      	ldr	r3, [r6, #0]
 8001be2:	f443 7380 	orr.w	r3, r3, #256	; 0x100
 8001be6:	6033      	str	r3, [r6, #0]
 8001be8:	f7fe feb6 	bl	8000958 <HAL_GetTick>
 8001bec:	4680      	mov	r8, r0
 8001bee:	6833      	ldr	r3, [r6, #0]
 8001bf0:	05da      	lsls	r2, r3, #23
 8001bf2:	d4dc      	bmi.n	8001bae <HAL_RCC_OscConfig+0x1ca>
 8001bf4:	f7fe feb0 	bl	8000958 <HAL_GetTick>
 8001bf8:	eba0 0008 	sub.w	r0, r0, r8
 8001bfc:	2864      	cmp	r0, #100	; 0x64
 8001bfe:	d9f6      	bls.n	8001bee <HAL_RCC_OscConfig+0x20a>
 8001c00:	e731      	b.n	8001a66 <HAL_RCC_OscConfig+0x82>
 8001c02:	b9ab      	cbnz	r3, 8001c30 <HAL_RCC_OscConfig+0x24c>
 8001c04:	6a23      	ldr	r3, [r4, #32]
 8001c06:	f241 3888 	movw	r8, #5000	; 0x1388
 8001c0a:	f023 0301 	bic.w	r3, r3, #1
 8001c0e:	6223      	str	r3, [r4, #32]
 8001c10:	6a23      	ldr	r3, [r4, #32]
 8001c12:	f023 0304 	bic.w	r3, r3, #4
 8001c16:	6223      	str	r3, [r4, #32]
 8001c18:	f7fe fe9e 	bl	8000958 <HAL_GetTick>
 8001c1c:	4606      	mov	r6, r0
 8001c1e:	6a23      	ldr	r3, [r4, #32]
 8001c20:	0798      	lsls	r0, r3, #30
 8001c22:	d5d3      	bpl.n	8001bcc <HAL_RCC_OscConfig+0x1e8>
 8001c24:	f7fe fe98 	bl	8000958 <HAL_GetTick>
 8001c28:	1b80      	subs	r0, r0, r6
 8001c2a:	4540      	cmp	r0, r8
 8001c2c:	d9f7      	bls.n	8001c1e <HAL_RCC_OscConfig+0x23a>
 8001c2e:	e71a      	b.n	8001a66 <HAL_RCC_OscConfig+0x82>
 8001c30:	2b05      	cmp	r3, #5
 8001c32:	6a23      	ldr	r3, [r4, #32]
 8001c34:	d103      	bne.n	8001c3e <HAL_RCC_OscConfig+0x25a>
 8001c36:	f043 0304 	orr.w	r3, r3, #4
 8001c3a:	6223      	str	r3, [r4, #32]
 8001c3c:	e7ba      	b.n	8001bb4 <HAL_RCC_OscConfig+0x1d0>
 8001c3e:	f023 0301 	bic.w	r3, r3, #1
 8001c42:	6223      	str	r3, [r4, #32]
 8001c44:	6a23      	ldr	r3, [r4, #32]
 8001c46:	f023 0304 	bic.w	r3, r3, #4
 8001c4a:	e7b6      	b.n	8001bba <HAL_RCC_OscConfig+0x1d6>
 8001c4c:	f7fe fe84 	bl	8000958 <HAL_GetTick>
 8001c50:	1b80      	subs	r0, r0, r6
 8001c52:	4540      	cmp	r0, r8
 8001c54:	d9b7      	bls.n	8001bc6 <HAL_RCC_OscConfig+0x1e2>
 8001c56:	e706      	b.n	8001a66 <HAL_RCC_OscConfig+0x82>
 8001c58:	40021000 	.word	0x40021000
 8001c5c:	42420000 	.word	0x42420000
 8001c60:	20000004 	.word	0x20000004
 8001c64:	40007000 	.word	0x40007000
 8001c68:	4c2a      	ldr	r4, [pc, #168]	; (8001d14 <HAL_RCC_OscConfig+0x330>)
 8001c6a:	6863      	ldr	r3, [r4, #4]
 8001c6c:	f003 030c 	and.w	r3, r3, #12
 8001c70:	2b08      	cmp	r3, #8
 8001c72:	d03e      	beq.n	8001cf2 <HAL_RCC_OscConfig+0x30e>
 8001c74:	2200      	movs	r2, #0
 8001c76:	4b28      	ldr	r3, [pc, #160]	; (8001d18 <HAL_RCC_OscConfig+0x334>)
 8001c78:	2802      	cmp	r0, #2
 8001c7a:	661a      	str	r2, [r3, #96]	; 0x60
 8001c7c:	d12c      	bne.n	8001cd8 <HAL_RCC_OscConfig+0x2f4>
 8001c7e:	f7fe fe6b 	bl	8000958 <HAL_GetTick>
 8001c82:	4606      	mov	r6, r0
 8001c84:	6823      	ldr	r3, [r4, #0]
 8001c86:	0199      	lsls	r1, r3, #6
 8001c88:	d420      	bmi.n	8001ccc <HAL_RCC_OscConfig+0x2e8>
 8001c8a:	6a2b      	ldr	r3, [r5, #32]
 8001c8c:	f5b3 3f80 	cmp.w	r3, #65536	; 0x10000
 8001c90:	d105      	bne.n	8001c9e <HAL_RCC_OscConfig+0x2ba>
 8001c92:	6862      	ldr	r2, [r4, #4]
 8001c94:	68a9      	ldr	r1, [r5, #8]
 8001c96:	f422 3200 	bic.w	r2, r2, #131072	; 0x20000
 8001c9a:	430a      	orrs	r2, r1
 8001c9c:	6062      	str	r2, [r4, #4]
 8001c9e:	6a69      	ldr	r1, [r5, #36]	; 0x24
 8001ca0:	6862      	ldr	r2, [r4, #4]
 8001ca2:	430b      	orrs	r3, r1
 8001ca4:	f422 1274 	bic.w	r2, r2, #3997696	; 0x3d0000
 8001ca8:	4313      	orrs	r3, r2
 8001caa:	2201      	movs	r2, #1
 8001cac:	6063      	str	r3, [r4, #4]
 8001cae:	4b1a      	ldr	r3, [pc, #104]	; (8001d18 <HAL_RCC_OscConfig+0x334>)
 8001cb0:	661a      	str	r2, [r3, #96]	; 0x60
 8001cb2:	f7fe fe51 	bl	8000958 <HAL_GetTick>
 8001cb6:	4605      	mov	r5, r0
 8001cb8:	6823      	ldr	r3, [r4, #0]
 8001cba:	019a      	lsls	r2, r3, #6
 8001cbc:	f53f aea8 	bmi.w	8001a10 <HAL_RCC_OscConfig+0x2c>
 8001cc0:	f7fe fe4a 	bl	8000958 <HAL_GetTick>
 8001cc4:	1b40      	subs	r0, r0, r5
 8001cc6:	2802      	cmp	r0, #2
 8001cc8:	d9f6      	bls.n	8001cb8 <HAL_RCC_OscConfig+0x2d4>
 8001cca:	e6cc      	b.n	8001a66 <HAL_RCC_OscConfig+0x82>
 8001ccc:	f7fe fe44 	bl	8000958 <HAL_GetTick>
 8001cd0:	1b80      	subs	r0, r0, r6
 8001cd2:	2802      	cmp	r0, #2
 8001cd4:	d9d6      	bls.n	8001c84 <HAL_RCC_OscConfig+0x2a0>
 8001cd6:	e6c6      	b.n	8001a66 <HAL_RCC_OscConfig+0x82>
 8001cd8:	f7fe fe3e 	bl	8000958 <HAL_GetTick>
 8001cdc:	4605      	mov	r5, r0
 8001cde:	6823      	ldr	r3, [r4, #0]
 8001ce0:	019b      	lsls	r3, r3, #6
 8001ce2:	f57f ae95 	bpl.w	8001a10 <HAL_RCC_OscConfig+0x2c>
 8001ce6:	f7fe fe37 	bl	8000958 <HAL_GetTick>
 8001cea:	1b40      	subs	r0, r0, r5
 8001cec:	2802      	cmp	r0, #2
 8001cee:	d9f6      	bls.n	8001cde <HAL_RCC_OscConfig+0x2fa>
 8001cf0:	e6b9      	b.n	8001a66 <HAL_RCC_OscConfig+0x82>
 8001cf2:	2801      	cmp	r0, #1
 8001cf4:	f43f aeb8 	beq.w	8001a68 <HAL_RCC_OscConfig+0x84>
 8001cf8:	6863      	ldr	r3, [r4, #4]
 8001cfa:	6a2a      	ldr	r2, [r5, #32]
 8001cfc:	f403 3180 	and.w	r1, r3, #65536	; 0x10000
 8001d00:	4291      	cmp	r1, r2
 8001d02:	f47f ae9b 	bne.w	8001a3c <HAL_RCC_OscConfig+0x58>
 8001d06:	6a6a      	ldr	r2, [r5, #36]	; 0x24
 8001d08:	f403 1370 	and.w	r3, r3, #3932160	; 0x3c0000
 8001d0c:	4293      	cmp	r3, r2
 8001d0e:	f43f ae7f 	beq.w	8001a10 <HAL_RCC_OscConfig+0x2c>
 8001d12:	e693      	b.n	8001a3c <HAL_RCC_OscConfig+0x58>
 8001d14:	40021000 	.word	0x40021000
 8001d18:	42420000 	.word	0x42420000

08001d1c <HAL_RCC_GetSysClockFreq>:
 8001d1c:	4a0d      	ldr	r2, [pc, #52]	; (8001d54 <HAL_RCC_GetSysClockFreq+0x38>)
 8001d1e:	6853      	ldr	r3, [r2, #4]
 8001d20:	f003 010c 	and.w	r1, r3, #12
 8001d24:	2908      	cmp	r1, #8
 8001d26:	d112      	bne.n	8001d4e <HAL_RCC_GetSysClockFreq+0x32>
 8001d28:	480b      	ldr	r0, [pc, #44]	; (8001d58 <HAL_RCC_GetSysClockFreq+0x3c>)
 8001d2a:	f3c3 4183 	ubfx	r1, r3, #18, #4
 8001d2e:	03db      	lsls	r3, r3, #15
 8001d30:	5c40      	ldrb	r0, [r0, r1]
 8001d32:	d509      	bpl.n	8001d48 <HAL_RCC_GetSysClockFreq+0x2c>
 8001d34:	6853      	ldr	r3, [r2, #4]
 8001d36:	4a09      	ldr	r2, [pc, #36]	; (8001d5c <HAL_RCC_GetSysClockFreq+0x40>)
 8001d38:	f3c3 4340 	ubfx	r3, r3, #17, #1
 8001d3c:	4350      	muls	r0, r2
 8001d3e:	4a08      	ldr	r2, [pc, #32]	; (8001d60 <HAL_RCC_GetSysClockFreq+0x44>)
 8001d40:	5cd3      	ldrb	r3, [r2, r3]
 8001d42:	fbb0 f0f3 	udiv	r0, r0, r3
 8001d46:	4770      	bx	lr
 8001d48:	4b06      	ldr	r3, [pc, #24]	; (8001d64 <HAL_RCC_GetSysClockFreq+0x48>)
 8001d4a:	4358      	muls	r0, r3
 8001d4c:	4770      	bx	lr
 8001d4e:	4803      	ldr	r0, [pc, #12]	; (8001d5c <HAL_RCC_GetSysClockFreq+0x40>)
 8001d50:	4770      	bx	lr
 8001d52:	bf00      	nop
 8001d54:	40021000 	.word	0x40021000
 8001d58:	080051c5 	.word	0x080051c5
 8001d5c:	007a1200 	.word	0x007a1200
 8001d60:	080051d5 	.word	0x080051d5
 8001d64:	003d0900 	.word	0x003d0900

08001d68 <HAL_RCC_ClockConfig>:
 8001d68:	e92d 41f0 	stmdb	sp!, {r4, r5, r6, r7, r8, lr}
 8001d6c:	460d      	mov	r5, r1
 8001d6e:	4604      	mov	r4, r0
 8001d70:	b910      	cbnz	r0, 8001d78 <HAL_RCC_ClockConfig+0x10>
 8001d72:	2001      	movs	r0, #1
 8001d74:	e8bd 81f0 	ldmia.w	sp!, {r4, r5, r6, r7, r8, pc}
 8001d78:	4a44      	ldr	r2, [pc, #272]	; (8001e8c <HAL_RCC_ClockConfig+0x124>)
 8001d7a:	6813      	ldr	r3, [r2, #0]
 8001d7c:	f003 0307 	and.w	r3, r3, #7
 8001d80:	428b      	cmp	r3, r1
 8001d82:	d328      	bcc.n	8001dd6 <HAL_RCC_ClockConfig+0x6e>
 8001d84:	6821      	ldr	r1, [r4, #0]
 8001d86:	078e      	lsls	r6, r1, #30
 8001d88:	d430      	bmi.n	8001dec <HAL_RCC_ClockConfig+0x84>
 8001d8a:	07ca      	lsls	r2, r1, #31
 8001d8c:	d443      	bmi.n	8001e16 <HAL_RCC_ClockConfig+0xae>
 8001d8e:	4a3f      	ldr	r2, [pc, #252]	; (8001e8c <HAL_RCC_ClockConfig+0x124>)
 8001d90:	6813      	ldr	r3, [r2, #0]
 8001d92:	f003 0307 	and.w	r3, r3, #7
 8001d96:	42ab      	cmp	r3, r5
 8001d98:	d865      	bhi.n	8001e66 <HAL_RCC_ClockConfig+0xfe>
 8001d9a:	6822      	ldr	r2, [r4, #0]
 8001d9c:	4d3c      	ldr	r5, [pc, #240]	; (8001e90 <HAL_RCC_ClockConfig+0x128>)
 8001d9e:	f012 0f04 	tst.w	r2, #4
 8001da2:	d16c      	bne.n	8001e7e <HAL_RCC_ClockConfig+0x116>
 8001da4:	0713      	lsls	r3, r2, #28
 8001da6:	d506      	bpl.n	8001db6 <HAL_RCC_ClockConfig+0x4e>
 8001da8:	686b      	ldr	r3, [r5, #4]
 8001daa:	6922      	ldr	r2, [r4, #16]
 8001dac:	f423 5360 	bic.w	r3, r3, #14336	; 0x3800
 8001db0:	ea43 03c2 	orr.w	r3, r3, r2, lsl #3
 8001db4:	606b      	str	r3, [r5, #4]
 8001db6:	f7ff ffb1 	bl	8001d1c <HAL_RCC_GetSysClockFreq>
 8001dba:	686b      	ldr	r3, [r5, #4]
 8001dbc:	4a35      	ldr	r2, [pc, #212]	; (8001e94 <HAL_RCC_ClockConfig+0x12c>)
 8001dbe:	f3c3 1303 	ubfx	r3, r3, #4, #4
 8001dc2:	5cd3      	ldrb	r3, [r2, r3]
 8001dc4:	40d8      	lsrs	r0, r3
 8001dc6:	4b34      	ldr	r3, [pc, #208]	; (8001e98 <HAL_RCC_ClockConfig+0x130>)
 8001dc8:	6018      	str	r0, [r3, #0]
 8001dca:	4b34      	ldr	r3, [pc, #208]	; (8001e9c <HAL_RCC_ClockConfig+0x134>)
 8001dcc:	6818      	ldr	r0, [r3, #0]
 8001dce:	f7fe fd81 	bl	80008d4 <HAL_InitTick>
 8001dd2:	2000      	movs	r0, #0
 8001dd4:	e7ce      	b.n	8001d74 <HAL_RCC_ClockConfig+0xc>
 8001dd6:	6813      	ldr	r3, [r2, #0]
 8001dd8:	f023 0307 	bic.w	r3, r3, #7
 8001ddc:	430b      	orrs	r3, r1
 8001dde:	6013      	str	r3, [r2, #0]
 8001de0:	6813      	ldr	r3, [r2, #0]
 8001de2:	f003 0307 	and.w	r3, r3, #7
 8001de6:	428b      	cmp	r3, r1
 8001de8:	d1c3      	bne.n	8001d72 <HAL_RCC_ClockConfig+0xa>
 8001dea:	e7cb      	b.n	8001d84 <HAL_RCC_ClockConfig+0x1c>
 8001dec:	4b28      	ldr	r3, [pc, #160]	; (8001e90 <HAL_RCC_ClockConfig+0x128>)
 8001dee:	f011 0f04 	tst.w	r1, #4
 8001df2:	bf1e      	ittt	ne
 8001df4:	685a      	ldrne	r2, [r3, #4]
 8001df6:	f442 62e0 	orrne.w	r2, r2, #1792	; 0x700
 8001dfa:	605a      	strne	r2, [r3, #4]
 8001dfc:	0708      	lsls	r0, r1, #28
 8001dfe:	bf42      	ittt	mi
 8001e00:	685a      	ldrmi	r2, [r3, #4]
 8001e02:	f442 5260 	orrmi.w	r2, r2, #14336	; 0x3800
 8001e06:	605a      	strmi	r2, [r3, #4]
 8001e08:	685a      	ldr	r2, [r3, #4]
 8001e0a:	68a0      	ldr	r0, [r4, #8]
 8001e0c:	f022 02f0 	bic.w	r2, r2, #240	; 0xf0
 8001e10:	4302      	orrs	r2, r0
 8001e12:	605a      	str	r2, [r3, #4]
 8001e14:	e7b9      	b.n	8001d8a <HAL_RCC_ClockConfig+0x22>
 8001e16:	6862      	ldr	r2, [r4, #4]
 8001e18:	4e1d      	ldr	r6, [pc, #116]	; (8001e90 <HAL_RCC_ClockConfig+0x128>)
 8001e1a:	2a01      	cmp	r2, #1
 8001e1c:	6833      	ldr	r3, [r6, #0]
 8001e1e:	d11a      	bne.n	8001e56 <HAL_RCC_ClockConfig+0xee>
 8001e20:	f413 3f00 	tst.w	r3, #131072	; 0x20000
 8001e24:	d0a5      	beq.n	8001d72 <HAL_RCC_ClockConfig+0xa>
 8001e26:	6873      	ldr	r3, [r6, #4]
 8001e28:	f241 3888 	movw	r8, #5000	; 0x1388
 8001e2c:	f023 0303 	bic.w	r3, r3, #3
 8001e30:	4313      	orrs	r3, r2
 8001e32:	6073      	str	r3, [r6, #4]
 8001e34:	f7fe fd90 	bl	8000958 <HAL_GetTick>
 8001e38:	4607      	mov	r7, r0
 8001e3a:	6873      	ldr	r3, [r6, #4]
 8001e3c:	6862      	ldr	r2, [r4, #4]
 8001e3e:	f003 030c 	and.w	r3, r3, #12
 8001e42:	ebb3 0f82 	cmp.w	r3, r2, lsl #2
 8001e46:	d0a2      	beq.n	8001d8e <HAL_RCC_ClockConfig+0x26>
 8001e48:	f7fe fd86 	bl	8000958 <HAL_GetTick>
 8001e4c:	1bc0      	subs	r0, r0, r7
 8001e4e:	4540      	cmp	r0, r8
 8001e50:	d9f3      	bls.n	8001e3a <HAL_RCC_ClockConfig+0xd2>
 8001e52:	2003      	movs	r0, #3
 8001e54:	e78e      	b.n	8001d74 <HAL_RCC_ClockConfig+0xc>
 8001e56:	2a02      	cmp	r2, #2
 8001e58:	d102      	bne.n	8001e60 <HAL_RCC_ClockConfig+0xf8>
 8001e5a:	f013 7f00 	tst.w	r3, #33554432	; 0x2000000
 8001e5e:	e7e1      	b.n	8001e24 <HAL_RCC_ClockConfig+0xbc>
 8001e60:	f013 0f02 	tst.w	r3, #2
 8001e64:	e7de      	b.n	8001e24 <HAL_RCC_ClockConfig+0xbc>
 8001e66:	6813      	ldr	r3, [r2, #0]
 8001e68:	f023 0307 	bic.w	r3, r3, #7
 8001e6c:	432b      	orrs	r3, r5
 8001e6e:	6013      	str	r3, [r2, #0]
 8001e70:	6813      	ldr	r3, [r2, #0]
 8001e72:	f003 0307 	and.w	r3, r3, #7
 8001e76:	42ab      	cmp	r3, r5
 8001e78:	f47f af7b 	bne.w	8001d72 <HAL_RCC_ClockConfig+0xa>
 8001e7c:	e78d      	b.n	8001d9a <HAL_RCC_ClockConfig+0x32>
 8001e7e:	686b      	ldr	r3, [r5, #4]
 8001e80:	68e1      	ldr	r1, [r4, #12]
 8001e82:	f423 63e0 	bic.w	r3, r3, #1792	; 0x700
 8001e86:	430b      	orrs	r3, r1
 8001e88:	606b      	str	r3, [r5, #4]
 8001e8a:	e78b      	b.n	8001da4 <HAL_RCC_ClockConfig+0x3c>
 8001e8c:	40022000 	.word	0x40022000
 8001e90:	40021000 	.word	0x40021000
 8001e94:	080051b5 	.word	0x080051b5
 8001e98:	20000004 	.word	0x20000004
 8001e9c:	2000000c 	.word	0x2000000c

08001ea0 <HAL_RCCEx_PeriphCLKConfig>:
 8001ea0:	6803      	ldr	r3, [r0, #0]
 8001ea2:	e92d 41f3 	stmdb	sp!, {r0, r1, r4, r5, r6, r7, r8, lr}
 8001ea6:	07d9      	lsls	r1, r3, #31
 8001ea8:	4605      	mov	r5, r0
 8001eaa:	d521      	bpl.n	8001ef0 <HAL_RCCEx_PeriphCLKConfig+0x50>
 8001eac:	4c36      	ldr	r4, [pc, #216]	; (8001f88 <HAL_RCCEx_PeriphCLKConfig+0xe8>)
 8001eae:	69e3      	ldr	r3, [r4, #28]
 8001eb0:	00da      	lsls	r2, r3, #3
 8001eb2:	d433      	bmi.n	8001f1c <HAL_RCCEx_PeriphCLKConfig+0x7c>
 8001eb4:	2601      	movs	r6, #1
 8001eb6:	69e3      	ldr	r3, [r4, #28]
 8001eb8:	f043 5380 	orr.w	r3, r3, #268435456	; 0x10000000
 8001ebc:	61e3      	str	r3, [r4, #28]
 8001ebe:	69e3      	ldr	r3, [r4, #28]
 8001ec0:	f003 5380 	and.w	r3, r3, #268435456	; 0x10000000
 8001ec4:	9301      	str	r3, [sp, #4]
 8001ec6:	9b01      	ldr	r3, [sp, #4]
 8001ec8:	4f30      	ldr	r7, [pc, #192]	; (8001f8c <HAL_RCCEx_PeriphCLKConfig+0xec>)
 8001eca:	683b      	ldr	r3, [r7, #0]
 8001ecc:	05db      	lsls	r3, r3, #23
 8001ece:	d527      	bpl.n	8001f20 <HAL_RCCEx_PeriphCLKConfig+0x80>
 8001ed0:	6a23      	ldr	r3, [r4, #32]
 8001ed2:	686a      	ldr	r2, [r5, #4]
 8001ed4:	f413 7340 	ands.w	r3, r3, #768	; 0x300
 8001ed8:	d136      	bne.n	8001f48 <HAL_RCCEx_PeriphCLKConfig+0xa8>
 8001eda:	6a23      	ldr	r3, [r4, #32]
 8001edc:	686a      	ldr	r2, [r5, #4]
 8001ede:	f423 7340 	bic.w	r3, r3, #768	; 0x300
 8001ee2:	4313      	orrs	r3, r2
 8001ee4:	6223      	str	r3, [r4, #32]
 8001ee6:	b11e      	cbz	r6, 8001ef0 <HAL_RCCEx_PeriphCLKConfig+0x50>
 8001ee8:	69e3      	ldr	r3, [r4, #28]
 8001eea:	f023 5380 	bic.w	r3, r3, #268435456	; 0x10000000
 8001eee:	61e3      	str	r3, [r4, #28]
 8001ef0:	6828      	ldr	r0, [r5, #0]
 8001ef2:	0783      	lsls	r3, r0, #30
 8001ef4:	d506      	bpl.n	8001f04 <HAL_RCCEx_PeriphCLKConfig+0x64>
 8001ef6:	4924      	ldr	r1, [pc, #144]	; (8001f88 <HAL_RCCEx_PeriphCLKConfig+0xe8>)
 8001ef8:	68ab      	ldr	r3, [r5, #8]
 8001efa:	684a      	ldr	r2, [r1, #4]
 8001efc:	f422 4240 	bic.w	r2, r2, #49152	; 0xc000
 8001f00:	431a      	orrs	r2, r3
 8001f02:	604a      	str	r2, [r1, #4]
 8001f04:	f010 0010 	ands.w	r0, r0, #16
 8001f08:	d01b      	beq.n	8001f42 <HAL_RCCEx_PeriphCLKConfig+0xa2>
 8001f0a:	4a1f      	ldr	r2, [pc, #124]	; (8001f88 <HAL_RCCEx_PeriphCLKConfig+0xe8>)
 8001f0c:	68e9      	ldr	r1, [r5, #12]
 8001f0e:	6853      	ldr	r3, [r2, #4]
 8001f10:	2000      	movs	r0, #0
 8001f12:	f423 0380 	bic.w	r3, r3, #4194304	; 0x400000
 8001f16:	430b      	orrs	r3, r1
 8001f18:	6053      	str	r3, [r2, #4]
 8001f1a:	e012      	b.n	8001f42 <HAL_RCCEx_PeriphCLKConfig+0xa2>
 8001f1c:	2600      	movs	r6, #0
 8001f1e:	e7d3      	b.n	8001ec8 <HAL_RCCEx_PeriphCLKConfig+0x28>
 8001f20:	683b      	ldr	r3, [r7, #0]
 8001f22:	f443 7380 	orr.w	r3, r3, #256	; 0x100
 8001f26:	603b      	str	r3, [r7, #0]
 8001f28:	f7fe fd16 	bl	8000958 <HAL_GetTick>
 8001f2c:	4680      	mov	r8, r0
 8001f2e:	683b      	ldr	r3, [r7, #0]
 8001f30:	05d8      	lsls	r0, r3, #23
 8001f32:	d4cd      	bmi.n	8001ed0 <HAL_RCCEx_PeriphCLKConfig+0x30>
 8001f34:	f7fe fd10 	bl	8000958 <HAL_GetTick>
 8001f38:	eba0 0008 	sub.w	r0, r0, r8
 8001f3c:	2864      	cmp	r0, #100	; 0x64
 8001f3e:	d9f6      	bls.n	8001f2e <HAL_RCCEx_PeriphCLKConfig+0x8e>
 8001f40:	2003      	movs	r0, #3
 8001f42:	b002      	add	sp, #8
 8001f44:	e8bd 81f0 	ldmia.w	sp!, {r4, r5, r6, r7, r8, pc}
 8001f48:	f402 7240 	and.w	r2, r2, #768	; 0x300
 8001f4c:	429a      	cmp	r2, r3
 8001f4e:	d0c4      	beq.n	8001eda <HAL_RCCEx_PeriphCLKConfig+0x3a>
 8001f50:	2001      	movs	r0, #1
 8001f52:	4a0f      	ldr	r2, [pc, #60]	; (8001f90 <HAL_RCCEx_PeriphCLKConfig+0xf0>)
 8001f54:	6a23      	ldr	r3, [r4, #32]
 8001f56:	f8c2 0440 	str.w	r0, [r2, #1088]	; 0x440
 8001f5a:	2000      	movs	r0, #0
 8001f5c:	f423 7140 	bic.w	r1, r3, #768	; 0x300
 8001f60:	f8c2 0440 	str.w	r0, [r2, #1088]	; 0x440
 8001f64:	6221      	str	r1, [r4, #32]
 8001f66:	07d9      	lsls	r1, r3, #31
 8001f68:	d5b7      	bpl.n	8001eda <HAL_RCCEx_PeriphCLKConfig+0x3a>
 8001f6a:	f7fe fcf5 	bl	8000958 <HAL_GetTick>
 8001f6e:	f241 3888 	movw	r8, #5000	; 0x1388
 8001f72:	4607      	mov	r7, r0
 8001f74:	6a23      	ldr	r3, [r4, #32]
 8001f76:	079a      	lsls	r2, r3, #30
 8001f78:	d4af      	bmi.n	8001eda <HAL_RCCEx_PeriphCLKConfig+0x3a>
 8001f7a:	f7fe fced 	bl	8000958 <HAL_GetTick>
 8001f7e:	1bc0      	subs	r0, r0, r7
 8001f80:	4540      	cmp	r0, r8
 8001f82:	d9f7      	bls.n	8001f74 <HAL_RCCEx_PeriphCLKConfig+0xd4>
 8001f84:	e7dc      	b.n	8001f40 <HAL_RCCEx_PeriphCLKConfig+0xa0>
 8001f86:	bf00      	nop
 8001f88:	40021000 	.word	0x40021000
 8001f8c:	40007000 	.word	0x40007000
 8001f90:	42420000 	.word	0x42420000

08001f94 <SPI_WaitFlagStateUntilTimeout.constprop.0>:
 8001f94:	e92d 41f3 	stmdb	sp!, {r0, r1, r4, r5, r6, r7, r8, lr}
 8001f98:	461c      	mov	r4, r3
 8001f9a:	4616      	mov	r6, r2
 8001f9c:	460f      	mov	r7, r1
 8001f9e:	4605      	mov	r5, r0
 8001fa0:	f7fe fcda 	bl	8000958 <HAL_GetTick>
 8001fa4:	4434      	add	r4, r6
 8001fa6:	1a24      	subs	r4, r4, r0
 8001fa8:	f7fe fcd6 	bl	8000958 <HAL_GetTick>
 8001fac:	4680      	mov	r8, r0
 8001fae:	4b23      	ldr	r3, [pc, #140]	; (800203c <SPI_WaitFlagStateUntilTimeout.constprop.0+0xa8>)
 8001fb0:	681b      	ldr	r3, [r3, #0]
 8001fb2:	f3c3 33cb 	ubfx	r3, r3, #15, #12
 8001fb6:	4363      	muls	r3, r4
 8001fb8:	682a      	ldr	r2, [r5, #0]
 8001fba:	9301      	str	r3, [sp, #4]
 8001fbc:	6893      	ldr	r3, [r2, #8]
 8001fbe:	ea37 0303 	bics.w	r3, r7, r3
 8001fc2:	d001      	beq.n	8001fc8 <SPI_WaitFlagStateUntilTimeout.constprop.0+0x34>
 8001fc4:	2000      	movs	r0, #0
 8001fc6:	e02e      	b.n	8002026 <SPI_WaitFlagStateUntilTimeout.constprop.0+0x92>
 8001fc8:	1c73      	adds	r3, r6, #1
 8001fca:	d0f7      	beq.n	8001fbc <SPI_WaitFlagStateUntilTimeout.constprop.0+0x28>
 8001fcc:	f7fe fcc4 	bl	8000958 <HAL_GetTick>
 8001fd0:	eba0 0008 	sub.w	r0, r0, r8
 8001fd4:	42a0      	cmp	r0, r4
 8001fd6:	d329      	bcc.n	800202c <SPI_WaitFlagStateUntilTimeout.constprop.0+0x98>
 8001fd8:	682b      	ldr	r3, [r5, #0]
 8001fda:	685a      	ldr	r2, [r3, #4]
 8001fdc:	f022 02e0 	bic.w	r2, r2, #224	; 0xe0
 8001fe0:	605a      	str	r2, [r3, #4]
 8001fe2:	686a      	ldr	r2, [r5, #4]
 8001fe4:	f5b2 7f82 	cmp.w	r2, #260	; 0x104
 8001fe8:	d10a      	bne.n	8002000 <SPI_WaitFlagStateUntilTimeout.constprop.0+0x6c>
 8001fea:	68aa      	ldr	r2, [r5, #8]
 8001fec:	f5b2 4f00 	cmp.w	r2, #32768	; 0x8000
 8001ff0:	d002      	beq.n	8001ff8 <SPI_WaitFlagStateUntilTimeout.constprop.0+0x64>
 8001ff2:	f5b2 6f80 	cmp.w	r2, #1024	; 0x400
 8001ff6:	d103      	bne.n	8002000 <SPI_WaitFlagStateUntilTimeout.constprop.0+0x6c>
 8001ff8:	681a      	ldr	r2, [r3, #0]
 8001ffa:	f022 0240 	bic.w	r2, r2, #64	; 0x40
 8001ffe:	601a      	str	r2, [r3, #0]
 8002000:	6aaa      	ldr	r2, [r5, #40]	; 0x28
 8002002:	f5b2 5f00 	cmp.w	r2, #8192	; 0x2000
 8002006:	d107      	bne.n	8002018 <SPI_WaitFlagStateUntilTimeout.constprop.0+0x84>
 8002008:	681a      	ldr	r2, [r3, #0]
 800200a:	f422 5200 	bic.w	r2, r2, #8192	; 0x2000
 800200e:	601a      	str	r2, [r3, #0]
 8002010:	681a      	ldr	r2, [r3, #0]
 8002012:	f442 5200 	orr.w	r2, r2, #8192	; 0x2000
 8002016:	601a      	str	r2, [r3, #0]
 8002018:	2301      	movs	r3, #1
 800201a:	f885 3051 	strb.w	r3, [r5, #81]	; 0x51
 800201e:	2300      	movs	r3, #0
 8002020:	2003      	movs	r0, #3
 8002022:	f885 3050 	strb.w	r3, [r5, #80]	; 0x50
 8002026:	b002      	add	sp, #8
 8002028:	e8bd 81f0 	ldmia.w	sp!, {r4, r5, r6, r7, r8, pc}
 800202c:	9b01      	ldr	r3, [sp, #4]
 800202e:	2b00      	cmp	r3, #0
 8002030:	9b01      	ldr	r3, [sp, #4]
 8002032:	bf08      	it	eq
 8002034:	2400      	moveq	r4, #0
 8002036:	3b01      	subs	r3, #1
 8002038:	e7be      	b.n	8001fb8 <SPI_WaitFlagStateUntilTimeout.constprop.0+0x24>
 800203a:	bf00      	nop
 800203c:	20000004 	.word	0x20000004

08002040 <SPI_EndRxTransaction>:
 8002040:	b538      	push	{r3, r4, r5, lr}
 8002042:	4613      	mov	r3, r2
 8002044:	6842      	ldr	r2, [r0, #4]
 8002046:	4604      	mov	r4, r0
 8002048:	f5b2 7f82 	cmp.w	r2, #260	; 0x104
 800204c:	d116      	bne.n	800207c <SPI_EndRxTransaction+0x3c>
 800204e:	6882      	ldr	r2, [r0, #8]
 8002050:	f5b2 4f00 	cmp.w	r2, #32768	; 0x8000
 8002054:	d002      	beq.n	800205c <SPI_EndRxTransaction+0x1c>
 8002056:	f5b2 6f80 	cmp.w	r2, #1024	; 0x400
 800205a:	d10f      	bne.n	800207c <SPI_EndRxTransaction+0x3c>
 800205c:	6825      	ldr	r5, [r4, #0]
 800205e:	f5b2 6f80 	cmp.w	r2, #1024	; 0x400
 8002062:	6828      	ldr	r0, [r5, #0]
 8002064:	f020 0040 	bic.w	r0, r0, #64	; 0x40
 8002068:	6028      	str	r0, [r5, #0]
 800206a:	d107      	bne.n	800207c <SPI_EndRxTransaction+0x3c>
 800206c:	460a      	mov	r2, r1
 800206e:	2101      	movs	r1, #1
 8002070:	4620      	mov	r0, r4
 8002072:	f7ff ff8f 	bl	8001f94 <SPI_WaitFlagStateUntilTimeout.constprop.0>
 8002076:	b920      	cbnz	r0, 8002082 <SPI_EndRxTransaction+0x42>
 8002078:	2000      	movs	r0, #0
 800207a:	bd38      	pop	{r3, r4, r5, pc}
 800207c:	460a      	mov	r2, r1
 800207e:	2180      	movs	r1, #128	; 0x80
 8002080:	e7f6      	b.n	8002070 <SPI_EndRxTransaction+0x30>
 8002082:	6d63      	ldr	r3, [r4, #84]	; 0x54
 8002084:	2003      	movs	r0, #3
 8002086:	f043 0320 	orr.w	r3, r3, #32
 800208a:	6563      	str	r3, [r4, #84]	; 0x54
 800208c:	e7f5      	b.n	800207a <SPI_EndRxTransaction+0x3a>

0800208e <SPI_EndRxTxTransaction>:
 800208e:	b510      	push	{r4, lr}
 8002090:	4613      	mov	r3, r2
 8002092:	460a      	mov	r2, r1
 8002094:	2180      	movs	r1, #128	; 0x80
 8002096:	4604      	mov	r4, r0
 8002098:	f7ff ff7c 	bl	8001f94 <SPI_WaitFlagStateUntilTimeout.constprop.0>
 800209c:	b120      	cbz	r0, 80020a8 <SPI_EndRxTxTransaction+0x1a>
 800209e:	2003      	movs	r0, #3
 80020a0:	6d63      	ldr	r3, [r4, #84]	; 0x54
 80020a2:	f043 0320 	orr.w	r3, r3, #32
 80020a6:	6563      	str	r3, [r4, #84]	; 0x54
 80020a8:	bd10      	pop	{r4, pc}

080020aa <HAL_SPI_Init>:
 80020aa:	b510      	push	{r4, lr}
 80020ac:	4604      	mov	r4, r0
 80020ae:	2800      	cmp	r0, #0
 80020b0:	d051      	beq.n	8002156 <HAL_SPI_Init+0xac>
 80020b2:	6a43      	ldr	r3, [r0, #36]	; 0x24
 80020b4:	2b00      	cmp	r3, #0
 80020b6:	d14a      	bne.n	800214e <HAL_SPI_Init+0xa4>
 80020b8:	6842      	ldr	r2, [r0, #4]
 80020ba:	f5b2 7f82 	cmp.w	r2, #260	; 0x104
 80020be:	d000      	beq.n	80020c2 <HAL_SPI_Init+0x18>
 80020c0:	61c3      	str	r3, [r0, #28]
 80020c2:	2300      	movs	r3, #0
 80020c4:	62a3      	str	r3, [r4, #40]	; 0x28
 80020c6:	f894 3051 	ldrb.w	r3, [r4, #81]	; 0x51
 80020ca:	f003 02ff 	and.w	r2, r3, #255	; 0xff
 80020ce:	b923      	cbnz	r3, 80020da <HAL_SPI_Init+0x30>
 80020d0:	4620      	mov	r0, r4
 80020d2:	f884 2050 	strb.w	r2, [r4, #80]	; 0x50
 80020d6:	f7fe fb13 	bl	8000700 <HAL_SPI_MspInit>
 80020da:	2302      	movs	r3, #2
 80020dc:	6822      	ldr	r2, [r4, #0]
 80020de:	f884 3051 	strb.w	r3, [r4, #81]	; 0x51
 80020e2:	6813      	ldr	r3, [r2, #0]
 80020e4:	68a0      	ldr	r0, [r4, #8]
 80020e6:	f023 0340 	bic.w	r3, r3, #64	; 0x40
 80020ea:	6013      	str	r3, [r2, #0]
 80020ec:	6863      	ldr	r3, [r4, #4]
 80020ee:	f400 4004 	and.w	r0, r0, #33792	; 0x8400
 80020f2:	f403 7382 	and.w	r3, r3, #260	; 0x104
 80020f6:	4303      	orrs	r3, r0
 80020f8:	68e0      	ldr	r0, [r4, #12]
 80020fa:	69a1      	ldr	r1, [r4, #24]
 80020fc:	f400 6000 	and.w	r0, r0, #2048	; 0x800
 8002100:	4303      	orrs	r3, r0
 8002102:	6920      	ldr	r0, [r4, #16]
 8002104:	f000 0002 	and.w	r0, r0, #2
 8002108:	4303      	orrs	r3, r0
 800210a:	6960      	ldr	r0, [r4, #20]
 800210c:	f000 0001 	and.w	r0, r0, #1
 8002110:	4303      	orrs	r3, r0
 8002112:	f401 7000 	and.w	r0, r1, #512	; 0x200
 8002116:	4303      	orrs	r3, r0
 8002118:	69e0      	ldr	r0, [r4, #28]
 800211a:	0c09      	lsrs	r1, r1, #16
 800211c:	f000 0038 	and.w	r0, r0, #56	; 0x38
 8002120:	4303      	orrs	r3, r0
 8002122:	6a20      	ldr	r0, [r4, #32]
 8002124:	f001 0104 	and.w	r1, r1, #4
 8002128:	f000 0080 	and.w	r0, r0, #128	; 0x80
 800212c:	4303      	orrs	r3, r0
 800212e:	6aa0      	ldr	r0, [r4, #40]	; 0x28
 8002130:	f400 5000 	and.w	r0, r0, #8192	; 0x2000
 8002134:	4303      	orrs	r3, r0
 8002136:	6013      	str	r3, [r2, #0]
 8002138:	6051      	str	r1, [r2, #4]
 800213a:	69d3      	ldr	r3, [r2, #28]
 800213c:	2000      	movs	r0, #0
 800213e:	f423 6300 	bic.w	r3, r3, #2048	; 0x800
 8002142:	61d3      	str	r3, [r2, #28]
 8002144:	2301      	movs	r3, #1
 8002146:	6560      	str	r0, [r4, #84]	; 0x54
 8002148:	f884 3051 	strb.w	r3, [r4, #81]	; 0x51
 800214c:	bd10      	pop	{r4, pc}
 800214e:	2300      	movs	r3, #0
 8002150:	e9c0 3304 	strd	r3, r3, [r0, #16]
 8002154:	e7b5      	b.n	80020c2 <HAL_SPI_Init+0x18>
 8002156:	2001      	movs	r0, #1
 8002158:	e7f8      	b.n	800214c <HAL_SPI_Init+0xa2>

0800215a <HAL_SPI_Transmit>:
 800215a:	e92d 47f3 	stmdb	sp!, {r0, r1, r4, r5, r6, r7, r8, r9, sl, lr}
 800215e:	461f      	mov	r7, r3
 8002160:	f890 3050 	ldrb.w	r3, [r0, #80]	; 0x50
 8002164:	4604      	mov	r4, r0
 8002166:	2b01      	cmp	r3, #1
 8002168:	460d      	mov	r5, r1
 800216a:	4690      	mov	r8, r2
 800216c:	f000 80a6 	beq.w	80022bc <HAL_SPI_Transmit+0x162>
 8002170:	2301      	movs	r3, #1
 8002172:	f880 3050 	strb.w	r3, [r0, #80]	; 0x50
 8002176:	f7fe fbef 	bl	8000958 <HAL_GetTick>
 800217a:	f894 3051 	ldrb.w	r3, [r4, #81]	; 0x51
 800217e:	4682      	mov	sl, r0
 8002180:	2b01      	cmp	r3, #1
 8002182:	fa5f f983 	uxtb.w	r9, r3
 8002186:	f040 8096 	bne.w	80022b6 <HAL_SPI_Transmit+0x15c>
 800218a:	2d00      	cmp	r5, #0
 800218c:	d067      	beq.n	800225e <HAL_SPI_Transmit+0x104>
 800218e:	f1b8 0f00 	cmp.w	r8, #0
 8002192:	d064      	beq.n	800225e <HAL_SPI_Transmit+0x104>
 8002194:	2303      	movs	r3, #3
 8002196:	f884 3051 	strb.w	r3, [r4, #81]	; 0x51
 800219a:	2300      	movs	r3, #0
 800219c:	6563      	str	r3, [r4, #84]	; 0x54
 800219e:	e9c4 3310 	strd	r3, r3, [r4, #64]	; 0x40
 80021a2:	f8a4 8036 	strh.w	r8, [r4, #54]	; 0x36
 80021a6:	63a3      	str	r3, [r4, #56]	; 0x38
 80021a8:	87a3      	strh	r3, [r4, #60]	; 0x3c
 80021aa:	87e3      	strh	r3, [r4, #62]	; 0x3e
 80021ac:	68a3      	ldr	r3, [r4, #8]
 80021ae:	6826      	ldr	r6, [r4, #0]
 80021b0:	f5b3 4f00 	cmp.w	r3, #32768	; 0x8000
 80021b4:	6325      	str	r5, [r4, #48]	; 0x30
 80021b6:	f8a4 8034 	strh.w	r8, [r4, #52]	; 0x34
 80021ba:	d107      	bne.n	80021cc <HAL_SPI_Transmit+0x72>
 80021bc:	6833      	ldr	r3, [r6, #0]
 80021be:	f023 0340 	bic.w	r3, r3, #64	; 0x40
 80021c2:	6033      	str	r3, [r6, #0]
 80021c4:	6833      	ldr	r3, [r6, #0]
 80021c6:	f443 4380 	orr.w	r3, r3, #16384	; 0x4000
 80021ca:	6033      	str	r3, [r6, #0]
 80021cc:	6833      	ldr	r3, [r6, #0]
 80021ce:	6862      	ldr	r2, [r4, #4]
 80021d0:	065b      	lsls	r3, r3, #25
 80021d2:	bf5e      	ittt	pl
 80021d4:	6833      	ldrpl	r3, [r6, #0]
 80021d6:	f043 0340 	orrpl.w	r3, r3, #64	; 0x40
 80021da:	6033      	strpl	r3, [r6, #0]
 80021dc:	68e3      	ldr	r3, [r4, #12]
 80021de:	f5b3 6f00 	cmp.w	r3, #2048	; 0x800
 80021e2:	d143      	bne.n	800226c <HAL_SPI_Transmit+0x112>
 80021e4:	b112      	cbz	r2, 80021ec <HAL_SPI_Transmit+0x92>
 80021e6:	f1b8 0f01 	cmp.w	r8, #1
 80021ea:	d107      	bne.n	80021fc <HAL_SPI_Transmit+0xa2>
 80021ec:	f835 3b02 	ldrh.w	r3, [r5], #2
 80021f0:	60f3      	str	r3, [r6, #12]
 80021f2:	6325      	str	r5, [r4, #48]	; 0x30
 80021f4:	8ee3      	ldrh	r3, [r4, #54]	; 0x36
 80021f6:	3b01      	subs	r3, #1
 80021f8:	b29b      	uxth	r3, r3
 80021fa:	86e3      	strh	r3, [r4, #54]	; 0x36
 80021fc:	8ee3      	ldrh	r3, [r4, #54]	; 0x36
 80021fe:	b29b      	uxth	r3, r3
 8002200:	b9b3      	cbnz	r3, 8002230 <HAL_SPI_Transmit+0xd6>
 8002202:	4652      	mov	r2, sl
 8002204:	4639      	mov	r1, r7
 8002206:	4620      	mov	r0, r4
 8002208:	f7ff ff41 	bl	800208e <SPI_EndRxTxTransaction>
 800220c:	2800      	cmp	r0, #0
 800220e:	d14f      	bne.n	80022b0 <HAL_SPI_Transmit+0x156>
 8002210:	68a3      	ldr	r3, [r4, #8]
 8002212:	b933      	cbnz	r3, 8002222 <HAL_SPI_Transmit+0xc8>
 8002214:	9301      	str	r3, [sp, #4]
 8002216:	6823      	ldr	r3, [r4, #0]
 8002218:	68da      	ldr	r2, [r3, #12]
 800221a:	9201      	str	r2, [sp, #4]
 800221c:	689b      	ldr	r3, [r3, #8]
 800221e:	9301      	str	r3, [sp, #4]
 8002220:	9b01      	ldr	r3, [sp, #4]
 8002222:	6d63      	ldr	r3, [r4, #84]	; 0x54
 8002224:	b9db      	cbnz	r3, 800225e <HAL_SPI_Transmit+0x104>
 8002226:	2201      	movs	r2, #1
 8002228:	4699      	mov	r9, r3
 800222a:	f884 2051 	strb.w	r2, [r4, #81]	; 0x51
 800222e:	e016      	b.n	800225e <HAL_SPI_Transmit+0x104>
 8002230:	6822      	ldr	r2, [r4, #0]
 8002232:	6893      	ldr	r3, [r2, #8]
 8002234:	0798      	lsls	r0, r3, #30
 8002236:	d505      	bpl.n	8002244 <HAL_SPI_Transmit+0xea>
 8002238:	6b23      	ldr	r3, [r4, #48]	; 0x30
 800223a:	f833 1b02 	ldrh.w	r1, [r3], #2
 800223e:	60d1      	str	r1, [r2, #12]
 8002240:	6323      	str	r3, [r4, #48]	; 0x30
 8002242:	e7d7      	b.n	80021f4 <HAL_SPI_Transmit+0x9a>
 8002244:	f7fe fb88 	bl	8000958 <HAL_GetTick>
 8002248:	eba0 000a 	sub.w	r0, r0, sl
 800224c:	42b8      	cmp	r0, r7
 800224e:	d3d5      	bcc.n	80021fc <HAL_SPI_Transmit+0xa2>
 8002250:	1c79      	adds	r1, r7, #1
 8002252:	d0d3      	beq.n	80021fc <HAL_SPI_Transmit+0xa2>
 8002254:	2301      	movs	r3, #1
 8002256:	f04f 0903 	mov.w	r9, #3
 800225a:	f884 3051 	strb.w	r3, [r4, #81]	; 0x51
 800225e:	2300      	movs	r3, #0
 8002260:	f884 3050 	strb.w	r3, [r4, #80]	; 0x50
 8002264:	4648      	mov	r0, r9
 8002266:	b002      	add	sp, #8
 8002268:	e8bd 87f0 	ldmia.w	sp!, {r4, r5, r6, r7, r8, r9, sl, pc}
 800226c:	b112      	cbz	r2, 8002274 <HAL_SPI_Transmit+0x11a>
 800226e:	f1b8 0f01 	cmp.w	r8, #1
 8002272:	d108      	bne.n	8002286 <HAL_SPI_Transmit+0x12c>
 8002274:	782b      	ldrb	r3, [r5, #0]
 8002276:	7333      	strb	r3, [r6, #12]
 8002278:	6b23      	ldr	r3, [r4, #48]	; 0x30
 800227a:	3301      	adds	r3, #1
 800227c:	6323      	str	r3, [r4, #48]	; 0x30
 800227e:	8ee3      	ldrh	r3, [r4, #54]	; 0x36
 8002280:	3b01      	subs	r3, #1
 8002282:	b29b      	uxth	r3, r3
 8002284:	86e3      	strh	r3, [r4, #54]	; 0x36
 8002286:	8ee3      	ldrh	r3, [r4, #54]	; 0x36
 8002288:	b29b      	uxth	r3, r3
 800228a:	2b00      	cmp	r3, #0
 800228c:	d0b9      	beq.n	8002202 <HAL_SPI_Transmit+0xa8>
 800228e:	6823      	ldr	r3, [r4, #0]
 8002290:	689a      	ldr	r2, [r3, #8]
 8002292:	0792      	lsls	r2, r2, #30
 8002294:	d503      	bpl.n	800229e <HAL_SPI_Transmit+0x144>
 8002296:	6b22      	ldr	r2, [r4, #48]	; 0x30
 8002298:	7812      	ldrb	r2, [r2, #0]
 800229a:	731a      	strb	r2, [r3, #12]
 800229c:	e7ec      	b.n	8002278 <HAL_SPI_Transmit+0x11e>
 800229e:	f7fe fb5b 	bl	8000958 <HAL_GetTick>
 80022a2:	eba0 000a 	sub.w	r0, r0, sl
 80022a6:	42b8      	cmp	r0, r7
 80022a8:	d3ed      	bcc.n	8002286 <HAL_SPI_Transmit+0x12c>
 80022aa:	1c7b      	adds	r3, r7, #1
 80022ac:	d0eb      	beq.n	8002286 <HAL_SPI_Transmit+0x12c>
 80022ae:	e7d1      	b.n	8002254 <HAL_SPI_Transmit+0xfa>
 80022b0:	2320      	movs	r3, #32
 80022b2:	6563      	str	r3, [r4, #84]	; 0x54
 80022b4:	e7ac      	b.n	8002210 <HAL_SPI_Transmit+0xb6>
 80022b6:	f04f 0902 	mov.w	r9, #2
 80022ba:	e7d0      	b.n	800225e <HAL_SPI_Transmit+0x104>
 80022bc:	f04f 0902 	mov.w	r9, #2
 80022c0:	e7d0      	b.n	8002264 <HAL_SPI_Transmit+0x10a>

080022c2 <HAL_SPI_TransmitReceive>:
 80022c2:	e92d 43f7 	stmdb	sp!, {r0, r1, r2, r4, r5, r6, r7, r8, r9, lr}
 80022c6:	461e      	mov	r6, r3
 80022c8:	f890 3050 	ldrb.w	r3, [r0, #80]	; 0x50
 80022cc:	4604      	mov	r4, r0
 80022ce:	2b01      	cmp	r3, #1
 80022d0:	460d      	mov	r5, r1
 80022d2:	4691      	mov	r9, r2
 80022d4:	f8dd 8028 	ldr.w	r8, [sp, #40]	; 0x28
 80022d8:	f000 80e6 	beq.w	80024a8 <HAL_SPI_TransmitReceive+0x1e6>
 80022dc:	2301      	movs	r3, #1
 80022de:	f880 3050 	strb.w	r3, [r0, #80]	; 0x50
 80022e2:	f7fe fb39 	bl	8000958 <HAL_GetTick>
 80022e6:	f894 3051 	ldrb.w	r3, [r4, #81]	; 0x51
 80022ea:	4607      	mov	r7, r0
 80022ec:	2b01      	cmp	r3, #1
 80022ee:	6862      	ldr	r2, [r4, #4]
 80022f0:	b2d9      	uxtb	r1, r3
 80022f2:	d00a      	beq.n	800230a <HAL_SPI_TransmitReceive+0x48>
 80022f4:	f5b2 7f82 	cmp.w	r2, #260	; 0x104
 80022f8:	f040 80d4 	bne.w	80024a4 <HAL_SPI_TransmitReceive+0x1e2>
 80022fc:	68a3      	ldr	r3, [r4, #8]
 80022fe:	2b00      	cmp	r3, #0
 8002300:	f040 80d0 	bne.w	80024a4 <HAL_SPI_TransmitReceive+0x1e2>
 8002304:	2904      	cmp	r1, #4
 8002306:	f040 80cd 	bne.w	80024a4 <HAL_SPI_TransmitReceive+0x1e2>
 800230a:	b90d      	cbnz	r5, 8002310 <HAL_SPI_TransmitReceive+0x4e>
 800230c:	2001      	movs	r0, #1
 800230e:	e06f      	b.n	80023f0 <HAL_SPI_TransmitReceive+0x12e>
 8002310:	f1b9 0f00 	cmp.w	r9, #0
 8002314:	d0fa      	beq.n	800230c <HAL_SPI_TransmitReceive+0x4a>
 8002316:	2e00      	cmp	r6, #0
 8002318:	d0f8      	beq.n	800230c <HAL_SPI_TransmitReceive+0x4a>
 800231a:	f894 3051 	ldrb.w	r3, [r4, #81]	; 0x51
 800231e:	f8c4 9038 	str.w	r9, [r4, #56]	; 0x38
 8002322:	2b04      	cmp	r3, #4
 8002324:	bf1c      	itt	ne
 8002326:	2305      	movne	r3, #5
 8002328:	f884 3051 	strbne.w	r3, [r4, #81]	; 0x51
 800232c:	2300      	movs	r3, #0
 800232e:	6563      	str	r3, [r4, #84]	; 0x54
 8002330:	e9c4 3310 	strd	r3, r3, [r4, #64]	; 0x40
 8002334:	6823      	ldr	r3, [r4, #0]
 8002336:	87e6      	strh	r6, [r4, #62]	; 0x3e
 8002338:	86e6      	strh	r6, [r4, #54]	; 0x36
 800233a:	6819      	ldr	r1, [r3, #0]
 800233c:	87a6      	strh	r6, [r4, #60]	; 0x3c
 800233e:	0649      	lsls	r1, r1, #25
 8002340:	bf58      	it	pl
 8002342:	6819      	ldrpl	r1, [r3, #0]
 8002344:	6325      	str	r5, [r4, #48]	; 0x30
 8002346:	bf58      	it	pl
 8002348:	f041 0140 	orrpl.w	r1, r1, #64	; 0x40
 800234c:	86a6      	strh	r6, [r4, #52]	; 0x34
 800234e:	bf58      	it	pl
 8002350:	6019      	strpl	r1, [r3, #0]
 8002352:	68e1      	ldr	r1, [r4, #12]
 8002354:	f5b1 6f00 	cmp.w	r1, #2048	; 0x800
 8002358:	d150      	bne.n	80023fc <HAL_SPI_TransmitReceive+0x13a>
 800235a:	b10a      	cbz	r2, 8002360 <HAL_SPI_TransmitReceive+0x9e>
 800235c:	2e01      	cmp	r6, #1
 800235e:	d107      	bne.n	8002370 <HAL_SPI_TransmitReceive+0xae>
 8002360:	f835 2b02 	ldrh.w	r2, [r5], #2
 8002364:	60da      	str	r2, [r3, #12]
 8002366:	8ee3      	ldrh	r3, [r4, #54]	; 0x36
 8002368:	6325      	str	r5, [r4, #48]	; 0x30
 800236a:	3b01      	subs	r3, #1
 800236c:	b29b      	uxth	r3, r3
 800236e:	86e3      	strh	r3, [r4, #54]	; 0x36
 8002370:	2501      	movs	r5, #1
 8002372:	8ee3      	ldrh	r3, [r4, #54]	; 0x36
 8002374:	b29b      	uxth	r3, r3
 8002376:	b963      	cbnz	r3, 8002392 <HAL_SPI_TransmitReceive+0xd0>
 8002378:	8fe3      	ldrh	r3, [r4, #62]	; 0x3e
 800237a:	b29b      	uxth	r3, r3
 800237c:	b94b      	cbnz	r3, 8002392 <HAL_SPI_TransmitReceive+0xd0>
 800237e:	463a      	mov	r2, r7
 8002380:	4641      	mov	r1, r8
 8002382:	4620      	mov	r0, r4
 8002384:	f7ff fe83 	bl	800208e <SPI_EndRxTxTransaction>
 8002388:	2800      	cmp	r0, #0
 800238a:	d07a      	beq.n	8002482 <HAL_SPI_TransmitReceive+0x1c0>
 800238c:	2320      	movs	r3, #32
 800238e:	6563      	str	r3, [r4, #84]	; 0x54
 8002390:	e7bc      	b.n	800230c <HAL_SPI_TransmitReceive+0x4a>
 8002392:	6821      	ldr	r1, [r4, #0]
 8002394:	688b      	ldr	r3, [r1, #8]
 8002396:	079a      	lsls	r2, r3, #30
 8002398:	d50d      	bpl.n	80023b6 <HAL_SPI_TransmitReceive+0xf4>
 800239a:	8ee3      	ldrh	r3, [r4, #54]	; 0x36
 800239c:	b29b      	uxth	r3, r3
 800239e:	b153      	cbz	r3, 80023b6 <HAL_SPI_TransmitReceive+0xf4>
 80023a0:	b14d      	cbz	r5, 80023b6 <HAL_SPI_TransmitReceive+0xf4>
 80023a2:	2500      	movs	r5, #0
 80023a4:	6b23      	ldr	r3, [r4, #48]	; 0x30
 80023a6:	f833 2b02 	ldrh.w	r2, [r3], #2
 80023aa:	60ca      	str	r2, [r1, #12]
 80023ac:	6323      	str	r3, [r4, #48]	; 0x30
 80023ae:	8ee3      	ldrh	r3, [r4, #54]	; 0x36
 80023b0:	3b01      	subs	r3, #1
 80023b2:	b29b      	uxth	r3, r3
 80023b4:	86e3      	strh	r3, [r4, #54]	; 0x36
 80023b6:	688a      	ldr	r2, [r1, #8]
 80023b8:	f012 0201 	ands.w	r2, r2, #1
 80023bc:	d00c      	beq.n	80023d8 <HAL_SPI_TransmitReceive+0x116>
 80023be:	8fe3      	ldrh	r3, [r4, #62]	; 0x3e
 80023c0:	b29b      	uxth	r3, r3
 80023c2:	b14b      	cbz	r3, 80023d8 <HAL_SPI_TransmitReceive+0x116>
 80023c4:	4615      	mov	r5, r2
 80023c6:	68c9      	ldr	r1, [r1, #12]
 80023c8:	6ba3      	ldr	r3, [r4, #56]	; 0x38
 80023ca:	f823 1b02 	strh.w	r1, [r3], #2
 80023ce:	63a3      	str	r3, [r4, #56]	; 0x38
 80023d0:	8fe3      	ldrh	r3, [r4, #62]	; 0x3e
 80023d2:	3b01      	subs	r3, #1
 80023d4:	b29b      	uxth	r3, r3
 80023d6:	87e3      	strh	r3, [r4, #62]	; 0x3e
 80023d8:	f7fe fabe 	bl	8000958 <HAL_GetTick>
 80023dc:	1bc0      	subs	r0, r0, r7
 80023de:	4540      	cmp	r0, r8
 80023e0:	d3c7      	bcc.n	8002372 <HAL_SPI_TransmitReceive+0xb0>
 80023e2:	f1b8 3fff 	cmp.w	r8, #4294967295
 80023e6:	d0c4      	beq.n	8002372 <HAL_SPI_TransmitReceive+0xb0>
 80023e8:	2301      	movs	r3, #1
 80023ea:	2003      	movs	r0, #3
 80023ec:	f884 3051 	strb.w	r3, [r4, #81]	; 0x51
 80023f0:	2300      	movs	r3, #0
 80023f2:	f884 3050 	strb.w	r3, [r4, #80]	; 0x50
 80023f6:	b003      	add	sp, #12
 80023f8:	e8bd 83f0 	ldmia.w	sp!, {r4, r5, r6, r7, r8, r9, pc}
 80023fc:	b10a      	cbz	r2, 8002402 <HAL_SPI_TransmitReceive+0x140>
 80023fe:	2e01      	cmp	r6, #1
 8002400:	d108      	bne.n	8002414 <HAL_SPI_TransmitReceive+0x152>
 8002402:	782a      	ldrb	r2, [r5, #0]
 8002404:	731a      	strb	r2, [r3, #12]
 8002406:	6b23      	ldr	r3, [r4, #48]	; 0x30
 8002408:	3301      	adds	r3, #1
 800240a:	6323      	str	r3, [r4, #48]	; 0x30
 800240c:	8ee3      	ldrh	r3, [r4, #54]	; 0x36
 800240e:	3b01      	subs	r3, #1
 8002410:	b29b      	uxth	r3, r3
 8002412:	86e3      	strh	r3, [r4, #54]	; 0x36
 8002414:	2501      	movs	r5, #1
 8002416:	8ee3      	ldrh	r3, [r4, #54]	; 0x36
 8002418:	b29b      	uxth	r3, r3
 800241a:	b91b      	cbnz	r3, 8002424 <HAL_SPI_TransmitReceive+0x162>
 800241c:	8fe3      	ldrh	r3, [r4, #62]	; 0x3e
 800241e:	b29b      	uxth	r3, r3
 8002420:	2b00      	cmp	r3, #0
 8002422:	d0ac      	beq.n	800237e <HAL_SPI_TransmitReceive+0xbc>
 8002424:	6822      	ldr	r2, [r4, #0]
 8002426:	6893      	ldr	r3, [r2, #8]
 8002428:	079b      	lsls	r3, r3, #30
 800242a:	d50e      	bpl.n	800244a <HAL_SPI_TransmitReceive+0x188>
 800242c:	8ee3      	ldrh	r3, [r4, #54]	; 0x36
 800242e:	b29b      	uxth	r3, r3
 8002430:	b15b      	cbz	r3, 800244a <HAL_SPI_TransmitReceive+0x188>
 8002432:	b155      	cbz	r5, 800244a <HAL_SPI_TransmitReceive+0x188>
 8002434:	2500      	movs	r5, #0
 8002436:	6b23      	ldr	r3, [r4, #48]	; 0x30
 8002438:	781b      	ldrb	r3, [r3, #0]
 800243a:	7313      	strb	r3, [r2, #12]
 800243c:	6b23      	ldr	r3, [r4, #48]	; 0x30
 800243e:	3301      	adds	r3, #1
 8002440:	6323      	str	r3, [r4, #48]	; 0x30
 8002442:	8ee3      	ldrh	r3, [r4, #54]	; 0x36
 8002444:	3b01      	subs	r3, #1
 8002446:	b29b      	uxth	r3, r3
 8002448:	86e3      	strh	r3, [r4, #54]	; 0x36
 800244a:	6822      	ldr	r2, [r4, #0]
 800244c:	6891      	ldr	r1, [r2, #8]
 800244e:	f011 0101 	ands.w	r1, r1, #1
 8002452:	d00d      	beq.n	8002470 <HAL_SPI_TransmitReceive+0x1ae>
 8002454:	8fe3      	ldrh	r3, [r4, #62]	; 0x3e
 8002456:	b29b      	uxth	r3, r3
 8002458:	b153      	cbz	r3, 8002470 <HAL_SPI_TransmitReceive+0x1ae>
 800245a:	460d      	mov	r5, r1
 800245c:	68d2      	ldr	r2, [r2, #12]
 800245e:	6ba3      	ldr	r3, [r4, #56]	; 0x38
 8002460:	701a      	strb	r2, [r3, #0]
 8002462:	6ba3      	ldr	r3, [r4, #56]	; 0x38
 8002464:	3301      	adds	r3, #1
 8002466:	63a3      	str	r3, [r4, #56]	; 0x38
 8002468:	8fe3      	ldrh	r3, [r4, #62]	; 0x3e
 800246a:	3b01      	subs	r3, #1
 800246c:	b29b      	uxth	r3, r3
 800246e:	87e3      	strh	r3, [r4, #62]	; 0x3e
 8002470:	f7fe fa72 	bl	8000958 <HAL_GetTick>
 8002474:	1bc0      	subs	r0, r0, r7
 8002476:	4540      	cmp	r0, r8
 8002478:	d3cd      	bcc.n	8002416 <HAL_SPI_TransmitReceive+0x154>
 800247a:	f1b8 3fff 	cmp.w	r8, #4294967295
 800247e:	d0ca      	beq.n	8002416 <HAL_SPI_TransmitReceive+0x154>
 8002480:	e7b2      	b.n	80023e8 <HAL_SPI_TransmitReceive+0x126>
 8002482:	68a3      	ldr	r3, [r4, #8]
 8002484:	b933      	cbnz	r3, 8002494 <HAL_SPI_TransmitReceive+0x1d2>
 8002486:	6823      	ldr	r3, [r4, #0]
 8002488:	9001      	str	r0, [sp, #4]
 800248a:	68da      	ldr	r2, [r3, #12]
 800248c:	9201      	str	r2, [sp, #4]
 800248e:	689b      	ldr	r3, [r3, #8]
 8002490:	9301      	str	r3, [sp, #4]
 8002492:	9b01      	ldr	r3, [sp, #4]
 8002494:	6d63      	ldr	r3, [r4, #84]	; 0x54
 8002496:	2b00      	cmp	r3, #0
 8002498:	f47f af38 	bne.w	800230c <HAL_SPI_TransmitReceive+0x4a>
 800249c:	2301      	movs	r3, #1
 800249e:	f884 3051 	strb.w	r3, [r4, #81]	; 0x51
 80024a2:	e7a5      	b.n	80023f0 <HAL_SPI_TransmitReceive+0x12e>
 80024a4:	2002      	movs	r0, #2
 80024a6:	e7a3      	b.n	80023f0 <HAL_SPI_TransmitReceive+0x12e>
 80024a8:	2002      	movs	r0, #2
 80024aa:	e7a4      	b.n	80023f6 <HAL_SPI_TransmitReceive+0x134>

080024ac <HAL_SPI_Receive>:
 80024ac:	e92d 47f3 	stmdb	sp!, {r0, r1, r4, r5, r6, r7, r8, r9, sl, lr}
 80024b0:	461e      	mov	r6, r3
 80024b2:	f890 3051 	ldrb.w	r3, [r0, #81]	; 0x51
 80024b6:	4604      	mov	r4, r0
 80024b8:	2b01      	cmp	r3, #1
 80024ba:	468a      	mov	sl, r1
 80024bc:	4690      	mov	r8, r2
 80024be:	b2dd      	uxtb	r5, r3
 80024c0:	f040 8095 	bne.w	80025ee <HAL_SPI_Receive+0x142>
 80024c4:	6843      	ldr	r3, [r0, #4]
 80024c6:	f5b3 7f82 	cmp.w	r3, #260	; 0x104
 80024ca:	d10e      	bne.n	80024ea <HAL_SPI_Receive+0x3e>
 80024cc:	6883      	ldr	r3, [r0, #8]
 80024ce:	b963      	cbnz	r3, 80024ea <HAL_SPI_Receive+0x3e>
 80024d0:	2304      	movs	r3, #4
 80024d2:	f880 3051 	strb.w	r3, [r0, #81]	; 0x51
 80024d6:	4613      	mov	r3, r2
 80024d8:	9600      	str	r6, [sp, #0]
 80024da:	460a      	mov	r2, r1
 80024dc:	f7ff fef1 	bl	80022c2 <HAL_SPI_TransmitReceive>
 80024e0:	4605      	mov	r5, r0
 80024e2:	4628      	mov	r0, r5
 80024e4:	b002      	add	sp, #8
 80024e6:	e8bd 87f0 	ldmia.w	sp!, {r4, r5, r6, r7, r8, r9, sl, pc}
 80024ea:	f894 3050 	ldrb.w	r3, [r4, #80]	; 0x50
 80024ee:	2b01      	cmp	r3, #1
 80024f0:	d07f      	beq.n	80025f2 <HAL_SPI_Receive+0x146>
 80024f2:	2301      	movs	r3, #1
 80024f4:	f884 3050 	strb.w	r3, [r4, #80]	; 0x50
 80024f8:	f7fe fa2e 	bl	8000958 <HAL_GetTick>
 80024fc:	4681      	mov	r9, r0
 80024fe:	f1ba 0f00 	cmp.w	sl, #0
 8002502:	d064      	beq.n	80025ce <HAL_SPI_Receive+0x122>
 8002504:	f1b8 0f00 	cmp.w	r8, #0
 8002508:	d061      	beq.n	80025ce <HAL_SPI_Receive+0x122>
 800250a:	2700      	movs	r7, #0
 800250c:	2304      	movs	r3, #4
 800250e:	68a2      	ldr	r2, [r4, #8]
 8002510:	f884 3051 	strb.w	r3, [r4, #81]	; 0x51
 8002514:	f5b2 4f00 	cmp.w	r2, #32768	; 0x8000
 8002518:	6567      	str	r7, [r4, #84]	; 0x54
 800251a:	e9c4 7710 	strd	r7, r7, [r4, #64]	; 0x40
 800251e:	f8a4 803e 	strh.w	r8, [r4, #62]	; 0x3e
 8002522:	6823      	ldr	r3, [r4, #0]
 8002524:	f8c4 a038 	str.w	sl, [r4, #56]	; 0x38
 8002528:	f8a4 803c 	strh.w	r8, [r4, #60]	; 0x3c
 800252c:	6327      	str	r7, [r4, #48]	; 0x30
 800252e:	86a7      	strh	r7, [r4, #52]	; 0x34
 8002530:	86e7      	strh	r7, [r4, #54]	; 0x36
 8002532:	d107      	bne.n	8002544 <HAL_SPI_Receive+0x98>
 8002534:	681a      	ldr	r2, [r3, #0]
 8002536:	f022 0240 	bic.w	r2, r2, #64	; 0x40
 800253a:	601a      	str	r2, [r3, #0]
 800253c:	681a      	ldr	r2, [r3, #0]
 800253e:	f422 4280 	bic.w	r2, r2, #16384	; 0x4000
 8002542:	601a      	str	r2, [r3, #0]
 8002544:	681a      	ldr	r2, [r3, #0]
 8002546:	0657      	lsls	r7, r2, #25
 8002548:	bf5e      	ittt	pl
 800254a:	681a      	ldrpl	r2, [r3, #0]
 800254c:	f042 0240 	orrpl.w	r2, r2, #64	; 0x40
 8002550:	601a      	strpl	r2, [r3, #0]
 8002552:	68e3      	ldr	r3, [r4, #12]
 8002554:	b1f3      	cbz	r3, 8002594 <HAL_SPI_Receive+0xe8>
 8002556:	8fe3      	ldrh	r3, [r4, #62]	; 0x3e
 8002558:	b29b      	uxth	r3, r3
 800255a:	b1fb      	cbz	r3, 800259c <HAL_SPI_Receive+0xf0>
 800255c:	6823      	ldr	r3, [r4, #0]
 800255e:	689a      	ldr	r2, [r3, #8]
 8002560:	07d2      	lsls	r2, r2, #31
 8002562:	d538      	bpl.n	80025d6 <HAL_SPI_Receive+0x12a>
 8002564:	68da      	ldr	r2, [r3, #12]
 8002566:	6ba3      	ldr	r3, [r4, #56]	; 0x38
 8002568:	f823 2b02 	strh.w	r2, [r3], #2
 800256c:	63a3      	str	r3, [r4, #56]	; 0x38
 800256e:	8fe3      	ldrh	r3, [r4, #62]	; 0x3e
 8002570:	3b01      	subs	r3, #1
 8002572:	b29b      	uxth	r3, r3
 8002574:	87e3      	strh	r3, [r4, #62]	; 0x3e
 8002576:	e7ee      	b.n	8002556 <HAL_SPI_Receive+0xaa>
 8002578:	6823      	ldr	r3, [r4, #0]
 800257a:	689a      	ldr	r2, [r3, #8]
 800257c:	07d0      	lsls	r0, r2, #31
 800257e:	d51a      	bpl.n	80025b6 <HAL_SPI_Receive+0x10a>
 8002580:	7b1b      	ldrb	r3, [r3, #12]
 8002582:	6ba2      	ldr	r2, [r4, #56]	; 0x38
 8002584:	7013      	strb	r3, [r2, #0]
 8002586:	6ba3      	ldr	r3, [r4, #56]	; 0x38
 8002588:	3301      	adds	r3, #1
 800258a:	63a3      	str	r3, [r4, #56]	; 0x38
 800258c:	8fe3      	ldrh	r3, [r4, #62]	; 0x3e
 800258e:	3b01      	subs	r3, #1
 8002590:	b29b      	uxth	r3, r3
 8002592:	87e3      	strh	r3, [r4, #62]	; 0x3e
 8002594:	8fe3      	ldrh	r3, [r4, #62]	; 0x3e
 8002596:	b29b      	uxth	r3, r3
 8002598:	2b00      	cmp	r3, #0
 800259a:	d1ed      	bne.n	8002578 <HAL_SPI_Receive+0xcc>
 800259c:	464a      	mov	r2, r9
 800259e:	4631      	mov	r1, r6
 80025a0:	4620      	mov	r0, r4
 80025a2:	f7ff fd4d 	bl	8002040 <SPI_EndRxTransaction>
 80025a6:	b9f8      	cbnz	r0, 80025e8 <HAL_SPI_Receive+0x13c>
 80025a8:	6d63      	ldr	r3, [r4, #84]	; 0x54
 80025aa:	b983      	cbnz	r3, 80025ce <HAL_SPI_Receive+0x122>
 80025ac:	2201      	movs	r2, #1
 80025ae:	461d      	mov	r5, r3
 80025b0:	f884 2051 	strb.w	r2, [r4, #81]	; 0x51
 80025b4:	e00b      	b.n	80025ce <HAL_SPI_Receive+0x122>
 80025b6:	f7fe f9cf 	bl	8000958 <HAL_GetTick>
 80025ba:	eba0 0009 	sub.w	r0, r0, r9
 80025be:	42b0      	cmp	r0, r6
 80025c0:	d3e8      	bcc.n	8002594 <HAL_SPI_Receive+0xe8>
 80025c2:	1c71      	adds	r1, r6, #1
 80025c4:	d0e6      	beq.n	8002594 <HAL_SPI_Receive+0xe8>
 80025c6:	2301      	movs	r3, #1
 80025c8:	2503      	movs	r5, #3
 80025ca:	f884 3051 	strb.w	r3, [r4, #81]	; 0x51
 80025ce:	2300      	movs	r3, #0
 80025d0:	f884 3050 	strb.w	r3, [r4, #80]	; 0x50
 80025d4:	e785      	b.n	80024e2 <HAL_SPI_Receive+0x36>
 80025d6:	f7fe f9bf 	bl	8000958 <HAL_GetTick>
 80025da:	eba0 0009 	sub.w	r0, r0, r9
 80025de:	42b0      	cmp	r0, r6
 80025e0:	d3b9      	bcc.n	8002556 <HAL_SPI_Receive+0xaa>
 80025e2:	1c73      	adds	r3, r6, #1
 80025e4:	d0b7      	beq.n	8002556 <HAL_SPI_Receive+0xaa>
 80025e6:	e7ee      	b.n	80025c6 <HAL_SPI_Receive+0x11a>
 80025e8:	2320      	movs	r3, #32
 80025ea:	6563      	str	r3, [r4, #84]	; 0x54
 80025ec:	e7dc      	b.n	80025a8 <HAL_SPI_Receive+0xfc>
 80025ee:	2502      	movs	r5, #2
 80025f0:	e7ed      	b.n	80025ce <HAL_SPI_Receive+0x122>
 80025f2:	2502      	movs	r5, #2
 80025f4:	e775      	b.n	80024e2 <HAL_SPI_Receive+0x36>

080025f6 <USB_CoreInit>:
 80025f6:	b084      	sub	sp, #16
 80025f8:	a801      	add	r0, sp, #4
 80025fa:	e880 000e 	stmia.w	r0, {r1, r2, r3}
 80025fe:	b004      	add	sp, #16
 8002600:	2000      	movs	r0, #0
 8002602:	4770      	bx	lr

08002604 <USB_EnableGlobalInt>:
 8002604:	4603      	mov	r3, r0
 8002606:	f44f 423f 	mov.w	r2, #48896	; 0xbf00
 800260a:	2000      	movs	r0, #0
 800260c:	f8a3 0044 	strh.w	r0, [r3, #68]	; 0x44
 8002610:	f8a3 2040 	strh.w	r2, [r3, #64]	; 0x40
 8002614:	4770      	bx	lr

08002616 <USB_DisableGlobalInt>:
 8002616:	f8b0 3040 	ldrh.w	r3, [r0, #64]	; 0x40
 800261a:	f423 537c 	bic.w	r3, r3, #16128	; 0x3f00
 800261e:	045b      	lsls	r3, r3, #17
 8002620:	0c5b      	lsrs	r3, r3, #17
 8002622:	f8a0 3040 	strh.w	r3, [r0, #64]	; 0x40
 8002626:	2000      	movs	r0, #0
 8002628:	4770      	bx	lr

0800262a <USB_SetCurrentMode>:
 800262a:	2000      	movs	r0, #0
 800262c:	4770      	bx	lr

0800262e <USB_DevInit>:
 800262e:	b084      	sub	sp, #16
 8002630:	b510      	push	{r4, lr}
 8002632:	4604      	mov	r4, r0
 8002634:	a803      	add	r0, sp, #12
 8002636:	e880 000e 	stmia.w	r0, {r1, r2, r3}
 800263a:	2000      	movs	r0, #0
 800263c:	2301      	movs	r3, #1
 800263e:	f8a4 3040 	strh.w	r3, [r4, #64]	; 0x40
 8002642:	f8a4 0040 	strh.w	r0, [r4, #64]	; 0x40
 8002646:	f8a4 0044 	strh.w	r0, [r4, #68]	; 0x44
 800264a:	f8a4 0050 	strh.w	r0, [r4, #80]	; 0x50
 800264e:	e8bd 4010 	ldmia.w	sp!, {r4, lr}
 8002652:	b004      	add	sp, #16
 8002654:	4770      	bx	lr
	...

08002658 <USB_ActivateEndpoint>:
 8002658:	b5f0      	push	{r4, r5, r6, r7, lr}
 800265a:	780a      	ldrb	r2, [r1, #0]
 800265c:	78cd      	ldrb	r5, [r1, #3]
 800265e:	f830 4022 	ldrh.w	r4, [r0, r2, lsl #2]
 8002662:	4603      	mov	r3, r0
 8002664:	f424 44ec 	bic.w	r4, r4, #30208	; 0x7600
 8002668:	f024 0470 	bic.w	r4, r4, #112	; 0x70
 800266c:	0424      	lsls	r4, r4, #16
 800266e:	0c24      	lsrs	r4, r4, #16
 8002670:	2d03      	cmp	r5, #3
 8002672:	d84b      	bhi.n	800270c <USB_ActivateEndpoint+0xb4>
 8002674:	e8df f005 	tbb	[pc, r5]
 8002678:	43454702 	.word	0x43454702
 800267c:	4628      	mov	r0, r5
 800267e:	f444 7400 	orr.w	r4, r4, #512	; 0x200
 8002682:	f248 0680 	movw	r6, #32896	; 0x8080
 8002686:	4334      	orrs	r4, r6
 8002688:	f823 4022 	strh.w	r4, [r3, r2, lsl #2]
 800268c:	f833 4022 	ldrh.w	r4, [r3, r2, lsl #2]
 8002690:	4f9e      	ldr	r7, [pc, #632]	; (800290c <USB_ActivateEndpoint+0x2b4>)
 8002692:	b2a4      	uxth	r4, r4
 8002694:	403c      	ands	r4, r7
 8002696:	4314      	orrs	r4, r2
 8002698:	4334      	orrs	r4, r6
 800269a:	f823 4022 	strh.w	r4, [r3, r2, lsl #2]
 800269e:	7b0c      	ldrb	r4, [r1, #12]
 80026a0:	eb03 1c02 	add.w	ip, r3, r2, lsl #4
 80026a4:	2c00      	cmp	r4, #0
 80026a6:	f040 808b 	bne.w	80027c0 <USB_ActivateEndpoint+0x168>
 80026aa:	88cc      	ldrh	r4, [r1, #6]
 80026ac:	784e      	ldrb	r6, [r1, #1]
 80026ae:	0864      	lsrs	r4, r4, #1
 80026b0:	0064      	lsls	r4, r4, #1
 80026b2:	b36e      	cbz	r6, 8002710 <USB_ActivateEndpoint+0xb8>
 80026b4:	f8b3 1050 	ldrh.w	r1, [r3, #80]	; 0x50
 80026b8:	b289      	uxth	r1, r1
 80026ba:	4461      	add	r1, ip
 80026bc:	f8a1 4400 	strh.w	r4, [r1, #1024]	; 0x400
 80026c0:	f833 1022 	ldrh.w	r1, [r3, r2, lsl #2]
 80026c4:	0649      	lsls	r1, r1, #25
 80026c6:	d509      	bpl.n	80026dc <USB_ActivateEndpoint+0x84>
 80026c8:	f833 1022 	ldrh.w	r1, [r3, r2, lsl #2]
 80026cc:	b289      	uxth	r1, r1
 80026ce:	4039      	ands	r1, r7
 80026d0:	f441 4100 	orr.w	r1, r1, #32768	; 0x8000
 80026d4:	f041 01c0 	orr.w	r1, r1, #192	; 0xc0
 80026d8:	f823 1022 	strh.w	r1, [r3, r2, lsl #2]
 80026dc:	f833 1022 	ldrh.w	r1, [r3, r2, lsl #2]
 80026e0:	4c8b      	ldr	r4, [pc, #556]	; (8002910 <USB_ActivateEndpoint+0x2b8>)
 80026e2:	b289      	uxth	r1, r1
 80026e4:	2d01      	cmp	r5, #1
 80026e6:	ea01 0104 	and.w	r1, r1, r4
 80026ea:	d001      	beq.n	80026f0 <USB_ActivateEndpoint+0x98>
 80026ec:	f081 0120 	eor.w	r1, r1, #32
 80026f0:	f441 4100 	orr.w	r1, r1, #32768	; 0x8000
 80026f4:	f041 0180 	orr.w	r1, r1, #128	; 0x80
 80026f8:	f823 1022 	strh.w	r1, [r3, r2, lsl #2]
 80026fc:	e04a      	b.n	8002794 <USB_ActivateEndpoint+0x13c>
 80026fe:	f444 64c0 	orr.w	r4, r4, #1536	; 0x600
 8002702:	2000      	movs	r0, #0
 8002704:	e7bd      	b.n	8002682 <USB_ActivateEndpoint+0x2a>
 8002706:	f444 6480 	orr.w	r4, r4, #1024	; 0x400
 800270a:	e7fa      	b.n	8002702 <USB_ActivateEndpoint+0xaa>
 800270c:	2001      	movs	r0, #1
 800270e:	e7b8      	b.n	8002682 <USB_ActivateEndpoint+0x2a>
 8002710:	f8b3 5050 	ldrh.w	r5, [r3, #80]	; 0x50
 8002714:	6909      	ldr	r1, [r1, #16]
 8002716:	b2ad      	uxth	r5, r5
 8002718:	4465      	add	r5, ip
 800271a:	f8a5 4408 	strh.w	r4, [r5, #1032]	; 0x408
 800271e:	f8b3 4050 	ldrh.w	r4, [r3, #80]	; 0x50
 8002722:	293e      	cmp	r1, #62	; 0x3e
 8002724:	b2a4      	uxth	r4, r4
 8002726:	4464      	add	r4, ip
 8002728:	f8b4 540c 	ldrh.w	r5, [r4, #1036]	; 0x40c
 800272c:	f3c5 0509 	ubfx	r5, r5, #0, #10
 8002730:	f8a4 540c 	strh.w	r5, [r4, #1036]	; 0x40c
 8002734:	d92f      	bls.n	8002796 <USB_ActivateEndpoint+0x13e>
 8002736:	094d      	lsrs	r5, r1, #5
 8002738:	06ce      	lsls	r6, r1, #27
 800273a:	f8b4 140c 	ldrh.w	r1, [r4, #1036]	; 0x40c
 800273e:	bf08      	it	eq
 8002740:	f105 35ff 	addeq.w	r5, r5, #4294967295
 8002744:	b289      	uxth	r1, r1
 8002746:	ea41 2185 	orr.w	r1, r1, r5, lsl #10
 800274a:	ea6f 4141 	mvn.w	r1, r1, lsl #17
 800274e:	ea6f 4151 	mvn.w	r1, r1, lsr #17
 8002752:	b289      	uxth	r1, r1
 8002754:	f8a4 140c 	strh.w	r1, [r4, #1036]	; 0x40c
 8002758:	f833 1022 	ldrh.w	r1, [r3, r2, lsl #2]
 800275c:	044f      	lsls	r7, r1, #17
 800275e:	d50d      	bpl.n	800277c <USB_ActivateEndpoint+0x124>
 8002760:	f833 1022 	ldrh.w	r1, [r3, r2, lsl #2]
 8002764:	f421 41e0 	bic.w	r1, r1, #28672	; 0x7000
 8002768:	f021 0170 	bic.w	r1, r1, #112	; 0x70
 800276c:	0409      	lsls	r1, r1, #16
 800276e:	0c09      	lsrs	r1, r1, #16
 8002770:	f441 4140 	orr.w	r1, r1, #49152	; 0xc000
 8002774:	f041 0180 	orr.w	r1, r1, #128	; 0x80
 8002778:	f823 1022 	strh.w	r1, [r3, r2, lsl #2]
 800277c:	4c65      	ldr	r4, [pc, #404]	; (8002914 <USB_ActivateEndpoint+0x2bc>)
 800277e:	b9c2      	cbnz	r2, 80027b2 <USB_ActivateEndpoint+0x15a>
 8002780:	881a      	ldrh	r2, [r3, #0]
 8002782:	b292      	uxth	r2, r2
 8002784:	4022      	ands	r2, r4
 8002786:	f482 5240 	eor.w	r2, r2, #12288	; 0x3000
 800278a:	f442 4200 	orr.w	r2, r2, #32768	; 0x8000
 800278e:	f042 0280 	orr.w	r2, r2, #128	; 0x80
 8002792:	801a      	strh	r2, [r3, #0]
 8002794:	bdf0      	pop	{r4, r5, r6, r7, pc}
 8002796:	b911      	cbnz	r1, 800279e <USB_ActivateEndpoint+0x146>
 8002798:	f8b4 140c 	ldrh.w	r1, [r4, #1036]	; 0x40c
 800279c:	e7d5      	b.n	800274a <USB_ActivateEndpoint+0xf2>
 800279e:	084d      	lsrs	r5, r1, #1
 80027a0:	07c9      	lsls	r1, r1, #31
 80027a2:	f8b4 140c 	ldrh.w	r1, [r4, #1036]	; 0x40c
 80027a6:	bf48      	it	mi
 80027a8:	3501      	addmi	r5, #1
 80027aa:	b289      	uxth	r1, r1
 80027ac:	ea41 2185 	orr.w	r1, r1, r5, lsl #10
 80027b0:	e7cf      	b.n	8002752 <USB_ActivateEndpoint+0xfa>
 80027b2:	f833 1022 	ldrh.w	r1, [r3, r2, lsl #2]
 80027b6:	b289      	uxth	r1, r1
 80027b8:	4021      	ands	r1, r4
 80027ba:	f481 5100 	eor.w	r1, r1, #8192	; 0x2000
 80027be:	e797      	b.n	80026f0 <USB_ActivateEndpoint+0x98>
 80027c0:	2d02      	cmp	r5, #2
 80027c2:	f833 4022 	ldrh.w	r4, [r3, r2, lsl #2]
 80027c6:	d15b      	bne.n	8002880 <USB_ActivateEndpoint+0x228>
 80027c8:	b2a4      	uxth	r4, r4
 80027ca:	403c      	ands	r4, r7
 80027cc:	f444 4401 	orr.w	r4, r4, #33024	; 0x8100
 80027d0:	f044 0480 	orr.w	r4, r4, #128	; 0x80
 80027d4:	f823 4022 	strh.w	r4, [r3, r2, lsl #2]
 80027d8:	f8b3 4050 	ldrh.w	r4, [r3, #80]	; 0x50
 80027dc:	890e      	ldrh	r6, [r1, #8]
 80027de:	b2a4      	uxth	r4, r4
 80027e0:	0876      	lsrs	r6, r6, #1
 80027e2:	4464      	add	r4, ip
 80027e4:	0076      	lsls	r6, r6, #1
 80027e6:	f8a4 6400 	strh.w	r6, [r4, #1024]	; 0x400
 80027ea:	894e      	ldrh	r6, [r1, #10]
 80027ec:	f8b3 4050 	ldrh.w	r4, [r3, #80]	; 0x50
 80027f0:	0876      	lsrs	r6, r6, #1
 80027f2:	b2a4      	uxth	r4, r4
 80027f4:	4464      	add	r4, ip
 80027f6:	0076      	lsls	r6, r6, #1
 80027f8:	f8a4 6408 	strh.w	r6, [r4, #1032]	; 0x408
 80027fc:	7849      	ldrb	r1, [r1, #1]
 80027fe:	2900      	cmp	r1, #0
 8002800:	d148      	bne.n	8002894 <USB_ActivateEndpoint+0x23c>
 8002802:	f833 1022 	ldrh.w	r1, [r3, r2, lsl #2]
 8002806:	044e      	lsls	r6, r1, #17
 8002808:	d50d      	bpl.n	8002826 <USB_ActivateEndpoint+0x1ce>
 800280a:	f833 1022 	ldrh.w	r1, [r3, r2, lsl #2]
 800280e:	f421 41e0 	bic.w	r1, r1, #28672	; 0x7000
 8002812:	f021 0170 	bic.w	r1, r1, #112	; 0x70
 8002816:	0409      	lsls	r1, r1, #16
 8002818:	0c09      	lsrs	r1, r1, #16
 800281a:	f441 4140 	orr.w	r1, r1, #49152	; 0xc000
 800281e:	f041 0180 	orr.w	r1, r1, #128	; 0x80
 8002822:	f823 1022 	strh.w	r1, [r3, r2, lsl #2]
 8002826:	f833 1022 	ldrh.w	r1, [r3, r2, lsl #2]
 800282a:	064d      	lsls	r5, r1, #25
 800282c:	d50d      	bpl.n	800284a <USB_ActivateEndpoint+0x1f2>
 800282e:	f833 1022 	ldrh.w	r1, [r3, r2, lsl #2]
 8002832:	f421 41e0 	bic.w	r1, r1, #28672	; 0x7000
 8002836:	f021 0170 	bic.w	r1, r1, #112	; 0x70
 800283a:	0409      	lsls	r1, r1, #16
 800283c:	0c09      	lsrs	r1, r1, #16
 800283e:	f441 4100 	orr.w	r1, r1, #32768	; 0x8000
 8002842:	f041 01c0 	orr.w	r1, r1, #192	; 0xc0
 8002846:	f823 1022 	strh.w	r1, [r3, r2, lsl #2]
 800284a:	f248 0480 	movw	r4, #32896	; 0x8080
 800284e:	f833 1022 	ldrh.w	r1, [r3, r2, lsl #2]
 8002852:	f421 4180 	bic.w	r1, r1, #16384	; 0x4000
 8002856:	f021 0170 	bic.w	r1, r1, #112	; 0x70
 800285a:	0409      	lsls	r1, r1, #16
 800285c:	0c09      	lsrs	r1, r1, #16
 800285e:	f481 5140 	eor.w	r1, r1, #12288	; 0x3000
 8002862:	4321      	orrs	r1, r4
 8002864:	f823 1022 	strh.w	r1, [r3, r2, lsl #2]
 8002868:	f833 1022 	ldrh.w	r1, [r3, r2, lsl #2]
 800286c:	f421 41e0 	bic.w	r1, r1, #28672	; 0x7000
 8002870:	f021 0140 	bic.w	r1, r1, #64	; 0x40
 8002874:	0409      	lsls	r1, r1, #16
 8002876:	0c09      	lsrs	r1, r1, #16
 8002878:	430c      	orrs	r4, r1
 800287a:	f823 4022 	strh.w	r4, [r3, r2, lsl #2]
 800287e:	e789      	b.n	8002794 <USB_ActivateEndpoint+0x13c>
 8002880:	f424 44e2 	bic.w	r4, r4, #28928	; 0x7100
 8002884:	f024 0470 	bic.w	r4, r4, #112	; 0x70
 8002888:	0424      	lsls	r4, r4, #16
 800288a:	0c24      	lsrs	r4, r4, #16
 800288c:	4326      	orrs	r6, r4
 800288e:	f823 6022 	strh.w	r6, [r3, r2, lsl #2]
 8002892:	e7a1      	b.n	80027d8 <USB_ActivateEndpoint+0x180>
 8002894:	f833 1022 	ldrh.w	r1, [r3, r2, lsl #2]
 8002898:	044c      	lsls	r4, r1, #17
 800289a:	d50d      	bpl.n	80028b8 <USB_ActivateEndpoint+0x260>
 800289c:	f833 1022 	ldrh.w	r1, [r3, r2, lsl #2]
 80028a0:	f421 41e0 	bic.w	r1, r1, #28672	; 0x7000
 80028a4:	f021 0170 	bic.w	r1, r1, #112	; 0x70
 80028a8:	0409      	lsls	r1, r1, #16
 80028aa:	0c09      	lsrs	r1, r1, #16
 80028ac:	f441 4140 	orr.w	r1, r1, #49152	; 0xc000
 80028b0:	f041 0180 	orr.w	r1, r1, #128	; 0x80
 80028b4:	f823 1022 	strh.w	r1, [r3, r2, lsl #2]
 80028b8:	f833 1022 	ldrh.w	r1, [r3, r2, lsl #2]
 80028bc:	0649      	lsls	r1, r1, #25
 80028be:	d50d      	bpl.n	80028dc <USB_ActivateEndpoint+0x284>
 80028c0:	f833 1022 	ldrh.w	r1, [r3, r2, lsl #2]
 80028c4:	f421 41e0 	bic.w	r1, r1, #28672	; 0x7000
 80028c8:	f021 0170 	bic.w	r1, r1, #112	; 0x70
 80028cc:	0409      	lsls	r1, r1, #16
 80028ce:	0c09      	lsrs	r1, r1, #16
 80028d0:	f441 4100 	orr.w	r1, r1, #32768	; 0x8000
 80028d4:	f041 01c0 	orr.w	r1, r1, #192	; 0xc0
 80028d8:	f823 1022 	strh.w	r1, [r3, r2, lsl #2]
 80028dc:	f833 1022 	ldrh.w	r1, [r3, r2, lsl #2]
 80028e0:	4c0b      	ldr	r4, [pc, #44]	; (8002910 <USB_ActivateEndpoint+0x2b8>)
 80028e2:	b289      	uxth	r1, r1
 80028e4:	4021      	ands	r1, r4
 80028e6:	2d01      	cmp	r5, #1
 80028e8:	bf18      	it	ne
 80028ea:	f081 0120 	eorne.w	r1, r1, #32
 80028ee:	f441 4100 	orr.w	r1, r1, #32768	; 0x8000
 80028f2:	f041 0180 	orr.w	r1, r1, #128	; 0x80
 80028f6:	f823 1022 	strh.w	r1, [r3, r2, lsl #2]
 80028fa:	f833 1022 	ldrh.w	r1, [r3, r2, lsl #2]
 80028fe:	f421 4180 	bic.w	r1, r1, #16384	; 0x4000
 8002902:	f021 0170 	bic.w	r1, r1, #112	; 0x70
 8002906:	0409      	lsls	r1, r1, #16
 8002908:	0c09      	lsrs	r1, r1, #16
 800290a:	e6f1      	b.n	80026f0 <USB_ActivateEndpoint+0x98>
 800290c:	ffff8f8f 	.word	0xffff8f8f
 8002910:	ffff8fbf 	.word	0xffff8fbf
 8002914:	ffffbf8f 	.word	0xffffbf8f

08002918 <USB_DeactivateEndpoint>:
 8002918:	784a      	ldrb	r2, [r1, #1]
 800291a:	780b      	ldrb	r3, [r1, #0]
 800291c:	7b09      	ldrb	r1, [r1, #12]
 800291e:	bbd9      	cbnz	r1, 8002998 <USB_DeactivateEndpoint+0x80>
 8002920:	b30a      	cbz	r2, 8002966 <USB_DeactivateEndpoint+0x4e>
 8002922:	f830 2023 	ldrh.w	r2, [r0, r3, lsl #2]
 8002926:	0651      	lsls	r1, r2, #25
 8002928:	d50d      	bpl.n	8002946 <USB_DeactivateEndpoint+0x2e>
 800292a:	f830 2023 	ldrh.w	r2, [r0, r3, lsl #2]
 800292e:	f422 42e0 	bic.w	r2, r2, #28672	; 0x7000
 8002932:	f022 0270 	bic.w	r2, r2, #112	; 0x70
 8002936:	0412      	lsls	r2, r2, #16
 8002938:	0c12      	lsrs	r2, r2, #16
 800293a:	f442 4200 	orr.w	r2, r2, #32768	; 0x8000
 800293e:	f042 02c0 	orr.w	r2, r2, #192	; 0xc0
 8002942:	f820 2023 	strh.w	r2, [r0, r3, lsl #2]
 8002946:	f830 2023 	ldrh.w	r2, [r0, r3, lsl #2]
 800294a:	f422 42e0 	bic.w	r2, r2, #28672	; 0x7000
 800294e:	f022 0240 	bic.w	r2, r2, #64	; 0x40
 8002952:	0412      	lsls	r2, r2, #16
 8002954:	0c12      	lsrs	r2, r2, #16
 8002956:	f442 4200 	orr.w	r2, r2, #32768	; 0x8000
 800295a:	f042 0280 	orr.w	r2, r2, #128	; 0x80
 800295e:	f820 2023 	strh.w	r2, [r0, r3, lsl #2]
 8002962:	2000      	movs	r0, #0
 8002964:	4770      	bx	lr
 8002966:	f830 2023 	ldrh.w	r2, [r0, r3, lsl #2]
 800296a:	0452      	lsls	r2, r2, #17
 800296c:	d50d      	bpl.n	800298a <USB_DeactivateEndpoint+0x72>
 800296e:	f830 2023 	ldrh.w	r2, [r0, r3, lsl #2]
 8002972:	f422 42e0 	bic.w	r2, r2, #28672	; 0x7000
 8002976:	f022 0270 	bic.w	r2, r2, #112	; 0x70
 800297a:	0412      	lsls	r2, r2, #16
 800297c:	0c12      	lsrs	r2, r2, #16
 800297e:	f442 4240 	orr.w	r2, r2, #49152	; 0xc000
 8002982:	f042 0280 	orr.w	r2, r2, #128	; 0x80
 8002986:	f820 2023 	strh.w	r2, [r0, r3, lsl #2]
 800298a:	f830 2023 	ldrh.w	r2, [r0, r3, lsl #2]
 800298e:	f422 4280 	bic.w	r2, r2, #16384	; 0x4000
 8002992:	f022 0270 	bic.w	r2, r2, #112	; 0x70
 8002996:	e7dc      	b.n	8002952 <USB_DeactivateEndpoint+0x3a>
 8002998:	2a00      	cmp	r2, #0
 800299a:	d14a      	bne.n	8002a32 <USB_DeactivateEndpoint+0x11a>
 800299c:	f830 2023 	ldrh.w	r2, [r0, r3, lsl #2]
 80029a0:	0451      	lsls	r1, r2, #17
 80029a2:	d50d      	bpl.n	80029c0 <USB_DeactivateEndpoint+0xa8>
 80029a4:	f830 2023 	ldrh.w	r2, [r0, r3, lsl #2]
 80029a8:	f422 42e0 	bic.w	r2, r2, #28672	; 0x7000
 80029ac:	f022 0270 	bic.w	r2, r2, #112	; 0x70
 80029b0:	0412      	lsls	r2, r2, #16
 80029b2:	0c12      	lsrs	r2, r2, #16
 80029b4:	f442 4240 	orr.w	r2, r2, #49152	; 0xc000
 80029b8:	f042 0280 	orr.w	r2, r2, #128	; 0x80
 80029bc:	f820 2023 	strh.w	r2, [r0, r3, lsl #2]
 80029c0:	f830 2023 	ldrh.w	r2, [r0, r3, lsl #2]
 80029c4:	0652      	lsls	r2, r2, #25
 80029c6:	d50d      	bpl.n	80029e4 <USB_DeactivateEndpoint+0xcc>
 80029c8:	f830 2023 	ldrh.w	r2, [r0, r3, lsl #2]
 80029cc:	f422 42e0 	bic.w	r2, r2, #28672	; 0x7000
 80029d0:	f022 0270 	bic.w	r2, r2, #112	; 0x70
 80029d4:	0412      	lsls	r2, r2, #16
 80029d6:	0c12      	lsrs	r2, r2, #16
 80029d8:	f442 4200 	orr.w	r2, r2, #32768	; 0x8000
 80029dc:	f042 02c0 	orr.w	r2, r2, #192	; 0xc0
 80029e0:	f820 2023 	strh.w	r2, [r0, r3, lsl #2]
 80029e4:	f248 0180 	movw	r1, #32896	; 0x8080
 80029e8:	f830 2023 	ldrh.w	r2, [r0, r3, lsl #2]
 80029ec:	f422 42e0 	bic.w	r2, r2, #28672	; 0x7000
 80029f0:	f022 0270 	bic.w	r2, r2, #112	; 0x70
 80029f4:	0412      	lsls	r2, r2, #16
 80029f6:	0c12      	lsrs	r2, r2, #16
 80029f8:	f442 4200 	orr.w	r2, r2, #32768	; 0x8000
 80029fc:	f042 02c0 	orr.w	r2, r2, #192	; 0xc0
 8002a00:	f820 2023 	strh.w	r2, [r0, r3, lsl #2]
 8002a04:	f830 2023 	ldrh.w	r2, [r0, r3, lsl #2]
 8002a08:	f422 4280 	bic.w	r2, r2, #16384	; 0x4000
 8002a0c:	f022 0270 	bic.w	r2, r2, #112	; 0x70
 8002a10:	0412      	lsls	r2, r2, #16
 8002a12:	0c12      	lsrs	r2, r2, #16
 8002a14:	430a      	orrs	r2, r1
 8002a16:	f820 2023 	strh.w	r2, [r0, r3, lsl #2]
 8002a1a:	f830 2023 	ldrh.w	r2, [r0, r3, lsl #2]
 8002a1e:	f422 42e0 	bic.w	r2, r2, #28672	; 0x7000
 8002a22:	f022 0240 	bic.w	r2, r2, #64	; 0x40
 8002a26:	0412      	lsls	r2, r2, #16
 8002a28:	0c12      	lsrs	r2, r2, #16
 8002a2a:	4311      	orrs	r1, r2
 8002a2c:	f820 1023 	strh.w	r1, [r0, r3, lsl #2]
 8002a30:	e797      	b.n	8002962 <USB_DeactivateEndpoint+0x4a>
 8002a32:	f830 2023 	ldrh.w	r2, [r0, r3, lsl #2]
 8002a36:	0451      	lsls	r1, r2, #17
 8002a38:	d50d      	bpl.n	8002a56 <USB_DeactivateEndpoint+0x13e>
 8002a3a:	f830 2023 	ldrh.w	r2, [r0, r3, lsl #2]
 8002a3e:	f422 42e0 	bic.w	r2, r2, #28672	; 0x7000
 8002a42:	f022 0270 	bic.w	r2, r2, #112	; 0x70
 8002a46:	0412      	lsls	r2, r2, #16
 8002a48:	0c12      	lsrs	r2, r2, #16
 8002a4a:	f442 4240 	orr.w	r2, r2, #49152	; 0xc000
 8002a4e:	f042 0280 	orr.w	r2, r2, #128	; 0x80
 8002a52:	f820 2023 	strh.w	r2, [r0, r3, lsl #2]
 8002a56:	f830 2023 	ldrh.w	r2, [r0, r3, lsl #2]
 8002a5a:	0652      	lsls	r2, r2, #25
 8002a5c:	d50d      	bpl.n	8002a7a <USB_DeactivateEndpoint+0x162>
 8002a5e:	f830 2023 	ldrh.w	r2, [r0, r3, lsl #2]
 8002a62:	f422 42e0 	bic.w	r2, r2, #28672	; 0x7000
 8002a66:	f022 0270 	bic.w	r2, r2, #112	; 0x70
 8002a6a:	0412      	lsls	r2, r2, #16
 8002a6c:	0c12      	lsrs	r2, r2, #16
 8002a6e:	f442 4200 	orr.w	r2, r2, #32768	; 0x8000
 8002a72:	f042 02c0 	orr.w	r2, r2, #192	; 0xc0
 8002a76:	f820 2023 	strh.w	r2, [r0, r3, lsl #2]
 8002a7a:	f248 0180 	movw	r1, #32896	; 0x8080
 8002a7e:	f830 2023 	ldrh.w	r2, [r0, r3, lsl #2]
 8002a82:	f422 42e0 	bic.w	r2, r2, #28672	; 0x7000
 8002a86:	f022 0270 	bic.w	r2, r2, #112	; 0x70
 8002a8a:	0412      	lsls	r2, r2, #16
 8002a8c:	0c12      	lsrs	r2, r2, #16
 8002a8e:	f442 4240 	orr.w	r2, r2, #49152	; 0xc000
 8002a92:	f042 0280 	orr.w	r2, r2, #128	; 0x80
 8002a96:	f820 2023 	strh.w	r2, [r0, r3, lsl #2]
 8002a9a:	f830 2023 	ldrh.w	r2, [r0, r3, lsl #2]
 8002a9e:	f422 42e0 	bic.w	r2, r2, #28672	; 0x7000
 8002aa2:	f022 0240 	bic.w	r2, r2, #64	; 0x40
 8002aa6:	0412      	lsls	r2, r2, #16
 8002aa8:	0c12      	lsrs	r2, r2, #16
 8002aaa:	430a      	orrs	r2, r1
 8002aac:	f820 2023 	strh.w	r2, [r0, r3, lsl #2]
 8002ab0:	f830 2023 	ldrh.w	r2, [r0, r3, lsl #2]
 8002ab4:	f422 4280 	bic.w	r2, r2, #16384	; 0x4000
 8002ab8:	f022 0270 	bic.w	r2, r2, #112	; 0x70
 8002abc:	e7b3      	b.n	8002a26 <USB_DeactivateEndpoint+0x10e>

08002abe <USB_EPSetStall>:
 8002abe:	784b      	ldrb	r3, [r1, #1]
 8002ac0:	780a      	ldrb	r2, [r1, #0]
 8002ac2:	b18b      	cbz	r3, 8002ae8 <USB_EPSetStall+0x2a>
 8002ac4:	f830 3022 	ldrh.w	r3, [r0, r2, lsl #2]
 8002ac8:	f423 43e0 	bic.w	r3, r3, #28672	; 0x7000
 8002acc:	f023 0340 	bic.w	r3, r3, #64	; 0x40
 8002ad0:	041b      	lsls	r3, r3, #16
 8002ad2:	0c1b      	lsrs	r3, r3, #16
 8002ad4:	f083 0310 	eor.w	r3, r3, #16
 8002ad8:	f443 4300 	orr.w	r3, r3, #32768	; 0x8000
 8002adc:	f043 0380 	orr.w	r3, r3, #128	; 0x80
 8002ae0:	f820 3022 	strh.w	r3, [r0, r2, lsl #2]
 8002ae4:	2000      	movs	r0, #0
 8002ae6:	4770      	bx	lr
 8002ae8:	f830 3022 	ldrh.w	r3, [r0, r2, lsl #2]
 8002aec:	f423 4380 	bic.w	r3, r3, #16384	; 0x4000
 8002af0:	f023 0370 	bic.w	r3, r3, #112	; 0x70
 8002af4:	041b      	lsls	r3, r3, #16
 8002af6:	0c1b      	lsrs	r3, r3, #16
 8002af8:	f483 5380 	eor.w	r3, r3, #4096	; 0x1000
 8002afc:	e7ec      	b.n	8002ad8 <USB_EPSetStall+0x1a>

08002afe <USB_EPClearStall>:
 8002afe:	7b0b      	ldrb	r3, [r1, #12]
 8002b00:	bb3b      	cbnz	r3, 8002b52 <USB_EPClearStall+0x54>
 8002b02:	784b      	ldrb	r3, [r1, #1]
 8002b04:	780a      	ldrb	r2, [r1, #0]
 8002b06:	b333      	cbz	r3, 8002b56 <USB_EPClearStall+0x58>
 8002b08:	f830 3022 	ldrh.w	r3, [r0, r2, lsl #2]
 8002b0c:	065b      	lsls	r3, r3, #25
 8002b0e:	d50d      	bpl.n	8002b2c <USB_EPClearStall+0x2e>
 8002b10:	f830 3022 	ldrh.w	r3, [r0, r2, lsl #2]
 8002b14:	f423 43e0 	bic.w	r3, r3, #28672	; 0x7000
 8002b18:	f023 0370 	bic.w	r3, r3, #112	; 0x70
 8002b1c:	041b      	lsls	r3, r3, #16
 8002b1e:	0c1b      	lsrs	r3, r3, #16
 8002b20:	f443 4300 	orr.w	r3, r3, #32768	; 0x8000
 8002b24:	f043 03c0 	orr.w	r3, r3, #192	; 0xc0
 8002b28:	f820 3022 	strh.w	r3, [r0, r2, lsl #2]
 8002b2c:	78cb      	ldrb	r3, [r1, #3]
 8002b2e:	2b01      	cmp	r3, #1
 8002b30:	d00f      	beq.n	8002b52 <USB_EPClearStall+0x54>
 8002b32:	f830 3022 	ldrh.w	r3, [r0, r2, lsl #2]
 8002b36:	f423 43e0 	bic.w	r3, r3, #28672	; 0x7000
 8002b3a:	f023 0340 	bic.w	r3, r3, #64	; 0x40
 8002b3e:	041b      	lsls	r3, r3, #16
 8002b40:	0c1b      	lsrs	r3, r3, #16
 8002b42:	f083 0320 	eor.w	r3, r3, #32
 8002b46:	f443 4300 	orr.w	r3, r3, #32768	; 0x8000
 8002b4a:	f043 0380 	orr.w	r3, r3, #128	; 0x80
 8002b4e:	f820 3022 	strh.w	r3, [r0, r2, lsl #2]
 8002b52:	2000      	movs	r0, #0
 8002b54:	4770      	bx	lr
 8002b56:	f830 3022 	ldrh.w	r3, [r0, r2, lsl #2]
 8002b5a:	045b      	lsls	r3, r3, #17
 8002b5c:	d50d      	bpl.n	8002b7a <USB_EPClearStall+0x7c>
 8002b5e:	f830 3022 	ldrh.w	r3, [r0, r2, lsl #2]
 8002b62:	f423 43e0 	bic.w	r3, r3, #28672	; 0x7000
 8002b66:	f023 0370 	bic.w	r3, r3, #112	; 0x70
 8002b6a:	041b      	lsls	r3, r3, #16
 8002b6c:	0c1b      	lsrs	r3, r3, #16
 8002b6e:	f443 4340 	orr.w	r3, r3, #49152	; 0xc000
 8002b72:	f043 0380 	orr.w	r3, r3, #128	; 0x80
 8002b76:	f820 3022 	strh.w	r3, [r0, r2, lsl #2]
 8002b7a:	f830 3022 	ldrh.w	r3, [r0, r2, lsl #2]
 8002b7e:	f423 4380 	bic.w	r3, r3, #16384	; 0x4000
 8002b82:	f023 0370 	bic.w	r3, r3, #112	; 0x70
 8002b86:	041b      	lsls	r3, r3, #16
 8002b88:	0c1b      	lsrs	r3, r3, #16
 8002b8a:	f483 5340 	eor.w	r3, r3, #12288	; 0x3000
 8002b8e:	e7da      	b.n	8002b46 <USB_EPClearStall+0x48>

08002b90 <USB_SetDevAddress>:
 8002b90:	b911      	cbnz	r1, 8002b98 <USB_SetDevAddress+0x8>
 8002b92:	2380      	movs	r3, #128	; 0x80
 8002b94:	f8a0 304c 	strh.w	r3, [r0, #76]	; 0x4c
 8002b98:	2000      	movs	r0, #0
 8002b9a:	4770      	bx	lr

08002b9c <USB_DevConnect>:
 8002b9c:	2000      	movs	r0, #0
 8002b9e:	4770      	bx	lr

08002ba0 <USB_DevDisconnect>:
 8002ba0:	2000      	movs	r0, #0
 8002ba2:	4770      	bx	lr

08002ba4 <USB_ReadInterrupts>:
 8002ba4:	f8b0 0044 	ldrh.w	r0, [r0, #68]	; 0x44
 8002ba8:	b280      	uxth	r0, r0
 8002baa:	4770      	bx	lr

08002bac <USB_EP0_OutStart>:
 8002bac:	2000      	movs	r0, #0
 8002bae:	4770      	bx	lr

08002bb0 <USB_WritePMA>:
 8002bb0:	eb00 0042 	add.w	r0, r0, r2, lsl #1
 8002bb4:	3301      	adds	r3, #1
 8002bb6:	f500 6080 	add.w	r0, r0, #1024	; 0x400
 8002bba:	085b      	lsrs	r3, r3, #1
 8002bbc:	eb00 0383 	add.w	r3, r0, r3, lsl #2
 8002bc0:	4283      	cmp	r3, r0
 8002bc2:	d100      	bne.n	8002bc6 <USB_WritePMA+0x16>
 8002bc4:	4770      	bx	lr
 8002bc6:	f831 2b02 	ldrh.w	r2, [r1], #2
 8002bca:	f820 2b04 	strh.w	r2, [r0], #4
 8002bce:	e7f7      	b.n	8002bc0 <USB_WritePMA+0x10>

08002bd0 <USB_EPStartXfer>:
 8002bd0:	e92d 47f0 	stmdb	sp!, {r4, r5, r6, r7, r8, r9, sl, lr}
 8002bd4:	460c      	mov	r4, r1
 8002bd6:	7849      	ldrb	r1, [r1, #1]
 8002bd8:	4605      	mov	r5, r0
 8002bda:	2901      	cmp	r1, #1
 8002bdc:	7b22      	ldrb	r2, [r4, #12]
 8002bde:	f040 8118 	bne.w	8002e12 <USB_EPStartXfer+0x242>
 8002be2:	f8d4 9010 	ldr.w	r9, [r4, #16]
 8002be6:	69a7      	ldr	r7, [r4, #24]
 8002be8:	6961      	ldr	r1, [r4, #20]
 8002bea:	454f      	cmp	r7, r9
 8002bec:	bf28      	it	cs
 8002bee:	464f      	movcs	r7, r9
 8002bf0:	bb0a      	cbnz	r2, 8002c36 <USB_EPStartXfer+0x66>
 8002bf2:	b2bf      	uxth	r7, r7
 8002bf4:	88e2      	ldrh	r2, [r4, #6]
 8002bf6:	463b      	mov	r3, r7
 8002bf8:	f7ff ffda 	bl	8002bb0 <USB_WritePMA>
 8002bfc:	f8b5 0050 	ldrh.w	r0, [r5, #80]	; 0x50
 8002c00:	7821      	ldrb	r1, [r4, #0]
 8002c02:	b280      	uxth	r0, r0
 8002c04:	f205 4204 	addw	r2, r5, #1028	; 0x404
 8002c08:	0109      	lsls	r1, r1, #4
 8002c0a:	4402      	add	r2, r0
 8002c0c:	528f      	strh	r7, [r1, r2]
 8002c0e:	7822      	ldrb	r2, [r4, #0]
 8002c10:	f835 3022 	ldrh.w	r3, [r5, r2, lsl #2]
 8002c14:	f423 43e0 	bic.w	r3, r3, #28672	; 0x7000
 8002c18:	f023 0340 	bic.w	r3, r3, #64	; 0x40
 8002c1c:	041b      	lsls	r3, r3, #16
 8002c1e:	0c1b      	lsrs	r3, r3, #16
 8002c20:	f083 0330 	eor.w	r3, r3, #48	; 0x30
 8002c24:	2000      	movs	r0, #0
 8002c26:	f443 4300 	orr.w	r3, r3, #32768	; 0x8000
 8002c2a:	f043 0380 	orr.w	r3, r3, #128	; 0x80
 8002c2e:	f825 3022 	strh.w	r3, [r5, r2, lsl #2]
 8002c32:	e8bd 87f0 	ldmia.w	sp!, {r4, r5, r6, r7, r8, r9, sl, pc}
 8002c36:	78e3      	ldrb	r3, [r4, #3]
 8002c38:	f894 e000 	ldrb.w	lr, [r4]
 8002c3c:	2b02      	cmp	r3, #2
 8002c3e:	6a26      	ldr	r6, [r4, #32]
 8002c40:	ea4f 1c0e 	mov.w	ip, lr, lsl #4
 8002c44:	f040 80d0 	bne.w	8002de8 <USB_EPStartXfer+0x218>
 8002c48:	45b1      	cmp	r9, r6
 8002c4a:	f830 202e 	ldrh.w	r2, [r0, lr, lsl #2]
 8002c4e:	f080 80b4 	bcs.w	8002dba <USB_EPStartXfer+0x1ea>
 8002c52:	f422 42e0 	bic.w	r2, r2, #28672	; 0x7000
 8002c56:	f022 0270 	bic.w	r2, r2, #112	; 0x70
 8002c5a:	0412      	lsls	r2, r2, #16
 8002c5c:	0c12      	lsrs	r2, r2, #16
 8002c5e:	f442 4201 	orr.w	r2, r2, #33024	; 0x8100
 8002c62:	f042 0280 	orr.w	r2, r2, #128	; 0x80
 8002c66:	f820 202e 	strh.w	r2, [r0, lr, lsl #2]
 8002c6a:	f830 802e 	ldrh.w	r8, [r0, lr, lsl #2]
 8002c6e:	f8b0 e050 	ldrh.w	lr, [r0, #80]	; 0x50
 8002c72:	1bf6      	subs	r6, r6, r7
 8002c74:	f018 0840 	ands.w	r8, r8, #64	; 0x40
 8002c78:	6226      	str	r6, [r4, #32]
 8002c7a:	eb01 0a07 	add.w	sl, r1, r7
 8002c7e:	b2bb      	uxth	r3, r7
 8002c80:	fa1f fe8e 	uxth.w	lr, lr
 8002c84:	d04e      	beq.n	8002d24 <USB_EPStartXfer+0x154>
 8002c86:	f200 420c 	addw	r2, r0, #1036	; 0x40c
 8002c8a:	4472      	add	r2, lr
 8002c8c:	f822 300c 	strh.w	r3, [r2, ip]
 8002c90:	8962      	ldrh	r2, [r4, #10]
 8002c92:	f7ff ff8d 	bl	8002bb0 <USB_WritePMA>
 8002c96:	45b1      	cmp	r9, r6
 8002c98:	bf36      	itet	cc
 8002c9a:	1bf3      	subcc	r3, r6, r7
 8002c9c:	2300      	movcs	r3, #0
 8002c9e:	463e      	movcc	r6, r7
 8002ca0:	7862      	ldrb	r2, [r4, #1]
 8002ca2:	6223      	str	r3, [r4, #32]
 8002ca4:	f8c4 a014 	str.w	sl, [r4, #20]
 8002ca8:	b2b3      	uxth	r3, r6
 8002caa:	bb7a      	cbnz	r2, 8002d0c <USB_EPStartXfer+0x13c>
 8002cac:	f8b5 2050 	ldrh.w	r2, [r5, #80]	; 0x50
 8002cb0:	7820      	ldrb	r0, [r4, #0]
 8002cb2:	b292      	uxth	r2, r2
 8002cb4:	f205 4104 	addw	r1, r5, #1028	; 0x404
 8002cb8:	0100      	lsls	r0, r0, #4
 8002cba:	4411      	add	r1, r2
 8002cbc:	5a42      	ldrh	r2, [r0, r1]
 8002cbe:	2e3e      	cmp	r6, #62	; 0x3e
 8002cc0:	f3c2 0209 	ubfx	r2, r2, #0, #10
 8002cc4:	5242      	strh	r2, [r0, r1]
 8002cc6:	d915      	bls.n	8002cf4 <USB_EPStartXfer+0x124>
 8002cc8:	06f2      	lsls	r2, r6, #27
 8002cca:	5a42      	ldrh	r2, [r0, r1]
 8002ccc:	ea4f 1756 	mov.w	r7, r6, lsr #5
 8002cd0:	bf08      	it	eq
 8002cd2:	f107 37ff 	addeq.w	r7, r7, #4294967295
 8002cd6:	b292      	uxth	r2, r2
 8002cd8:	ea42 2287 	orr.w	r2, r2, r7, lsl #10
 8002cdc:	ea6f 4242 	mvn.w	r2, r2, lsl #17
 8002ce0:	ea6f 4252 	mvn.w	r2, r2, lsr #17
 8002ce4:	b292      	uxth	r2, r2
 8002ce6:	5242      	strh	r2, [r0, r1]
 8002ce8:	8922      	ldrh	r2, [r4, #8]
 8002cea:	4651      	mov	r1, sl
 8002cec:	4628      	mov	r0, r5
 8002cee:	f7ff ff5f 	bl	8002bb0 <USB_WritePMA>
 8002cf2:	e78c      	b.n	8002c0e <USB_EPStartXfer+0x3e>
 8002cf4:	b90e      	cbnz	r6, 8002cfa <USB_EPStartXfer+0x12a>
 8002cf6:	5a42      	ldrh	r2, [r0, r1]
 8002cf8:	e7f0      	b.n	8002cdc <USB_EPStartXfer+0x10c>
 8002cfa:	5a42      	ldrh	r2, [r0, r1]
 8002cfc:	0877      	lsrs	r7, r6, #1
 8002cfe:	07f6      	lsls	r6, r6, #31
 8002d00:	bf48      	it	mi
 8002d02:	3701      	addmi	r7, #1
 8002d04:	b292      	uxth	r2, r2
 8002d06:	ea42 2287 	orr.w	r2, r2, r7, lsl #10
 8002d0a:	e7eb      	b.n	8002ce4 <USB_EPStartXfer+0x114>
 8002d0c:	2a01      	cmp	r2, #1
 8002d0e:	d1eb      	bne.n	8002ce8 <USB_EPStartXfer+0x118>
 8002d10:	f8b5 0050 	ldrh.w	r0, [r5, #80]	; 0x50
 8002d14:	7821      	ldrb	r1, [r4, #0]
 8002d16:	b280      	uxth	r0, r0
 8002d18:	f205 4204 	addw	r2, r5, #1028	; 0x404
 8002d1c:	0109      	lsls	r1, r1, #4
 8002d1e:	4402      	add	r2, r0
 8002d20:	528b      	strh	r3, [r1, r2]
 8002d22:	e7e1      	b.n	8002ce8 <USB_EPStartXfer+0x118>
 8002d24:	f200 4204 	addw	r2, r0, #1028	; 0x404
 8002d28:	4472      	add	r2, lr
 8002d2a:	f822 300c 	strh.w	r3, [r2, ip]
 8002d2e:	8922      	ldrh	r2, [r4, #8]
 8002d30:	f7ff ff3e 	bl	8002bb0 <USB_WritePMA>
 8002d34:	45b1      	cmp	r9, r6
 8002d36:	bf36      	itet	cc
 8002d38:	1bf3      	subcc	r3, r6, r7
 8002d3a:	4643      	movcs	r3, r8
 8002d3c:	463e      	movcc	r6, r7
 8002d3e:	7862      	ldrb	r2, [r4, #1]
 8002d40:	6223      	str	r3, [r4, #32]
 8002d42:	f8c4 a014 	str.w	sl, [r4, #20]
 8002d46:	b2b3      	uxth	r3, r6
 8002d48:	bb5a      	cbnz	r2, 8002da2 <USB_EPStartXfer+0x1d2>
 8002d4a:	f8b5 2050 	ldrh.w	r2, [r5, #80]	; 0x50
 8002d4e:	7820      	ldrb	r0, [r4, #0]
 8002d50:	b292      	uxth	r2, r2
 8002d52:	f205 410c 	addw	r1, r5, #1036	; 0x40c
 8002d56:	0100      	lsls	r0, r0, #4
 8002d58:	4411      	add	r1, r2
 8002d5a:	5a42      	ldrh	r2, [r0, r1]
 8002d5c:	2e3e      	cmp	r6, #62	; 0x3e
 8002d5e:	f3c2 0209 	ubfx	r2, r2, #0, #10
 8002d62:	5242      	strh	r2, [r0, r1]
 8002d64:	d911      	bls.n	8002d8a <USB_EPStartXfer+0x1ba>
 8002d66:	06f2      	lsls	r2, r6, #27
 8002d68:	5a42      	ldrh	r2, [r0, r1]
 8002d6a:	ea4f 1756 	mov.w	r7, r6, lsr #5
 8002d6e:	bf08      	it	eq
 8002d70:	f107 37ff 	addeq.w	r7, r7, #4294967295
 8002d74:	b292      	uxth	r2, r2
 8002d76:	ea42 2287 	orr.w	r2, r2, r7, lsl #10
 8002d7a:	ea6f 4242 	mvn.w	r2, r2, lsl #17
 8002d7e:	ea6f 4252 	mvn.w	r2, r2, lsr #17
 8002d82:	b292      	uxth	r2, r2
 8002d84:	5242      	strh	r2, [r0, r1]
 8002d86:	8962      	ldrh	r2, [r4, #10]
 8002d88:	e7af      	b.n	8002cea <USB_EPStartXfer+0x11a>
 8002d8a:	b90e      	cbnz	r6, 8002d90 <USB_EPStartXfer+0x1c0>
 8002d8c:	5a42      	ldrh	r2, [r0, r1]
 8002d8e:	e7f4      	b.n	8002d7a <USB_EPStartXfer+0x1aa>
 8002d90:	5a42      	ldrh	r2, [r0, r1]
 8002d92:	0877      	lsrs	r7, r6, #1
 8002d94:	07f6      	lsls	r6, r6, #31
 8002d96:	bf48      	it	mi
 8002d98:	3701      	addmi	r7, #1
 8002d9a:	b292      	uxth	r2, r2
 8002d9c:	ea42 2287 	orr.w	r2, r2, r7, lsl #10
 8002da0:	e7ef      	b.n	8002d82 <USB_EPStartXfer+0x1b2>
 8002da2:	2a01      	cmp	r2, #1
 8002da4:	d1ef      	bne.n	8002d86 <USB_EPStartXfer+0x1b6>
 8002da6:	f8b5 0050 	ldrh.w	r0, [r5, #80]	; 0x50
 8002daa:	7821      	ldrb	r1, [r4, #0]
 8002dac:	b280      	uxth	r0, r0
 8002dae:	f205 420c 	addw	r2, r5, #1036	; 0x40c
 8002db2:	0109      	lsls	r1, r1, #4
 8002db4:	4402      	add	r2, r0
 8002db6:	528b      	strh	r3, [r1, r2]
 8002db8:	e7e5      	b.n	8002d86 <USB_EPStartXfer+0x1b6>
 8002dba:	f422 42e2 	bic.w	r2, r2, #28928	; 0x7100
 8002dbe:	f022 0270 	bic.w	r2, r2, #112	; 0x70
 8002dc2:	0412      	lsls	r2, r2, #16
 8002dc4:	0c12      	lsrs	r2, r2, #16
 8002dc6:	f442 4200 	orr.w	r2, r2, #32768	; 0x8000
 8002dca:	f042 0280 	orr.w	r2, r2, #128	; 0x80
 8002dce:	f820 202e 	strh.w	r2, [r0, lr, lsl #2]
 8002dd2:	f8b0 3050 	ldrh.w	r3, [r0, #80]	; 0x50
 8002dd6:	f200 4204 	addw	r2, r0, #1028	; 0x404
 8002dda:	b29b      	uxth	r3, r3
 8002ddc:	441a      	add	r2, r3
 8002dde:	b2b3      	uxth	r3, r6
 8002de0:	f822 300c 	strh.w	r3, [r2, ip]
 8002de4:	8922      	ldrh	r2, [r4, #8]
 8002de6:	e782      	b.n	8002cee <USB_EPStartXfer+0x11e>
 8002de8:	f830 202e 	ldrh.w	r2, [r0, lr, lsl #2]
 8002dec:	1bf6      	subs	r6, r6, r7
 8002dee:	6226      	str	r6, [r4, #32]
 8002df0:	f8b0 6050 	ldrh.w	r6, [r0, #80]	; 0x50
 8002df4:	0652      	lsls	r2, r2, #25
 8002df6:	b2bb      	uxth	r3, r7
 8002df8:	b2b6      	uxth	r6, r6
 8002dfa:	d506      	bpl.n	8002e0a <USB_EPStartXfer+0x23a>
 8002dfc:	f200 420c 	addw	r2, r0, #1036	; 0x40c
 8002e00:	4432      	add	r2, r6
 8002e02:	f822 300c 	strh.w	r3, [r2, ip]
 8002e06:	8962      	ldrh	r2, [r4, #10]
 8002e08:	e771      	b.n	8002cee <USB_EPStartXfer+0x11e>
 8002e0a:	f200 4204 	addw	r2, r0, #1028	; 0x404
 8002e0e:	4432      	add	r2, r6
 8002e10:	e7e6      	b.n	8002de0 <USB_EPStartXfer+0x210>
 8002e12:	b9d2      	cbnz	r2, 8002e4a <USB_EPStartXfer+0x27a>
 8002e14:	69a3      	ldr	r3, [r4, #24]
 8002e16:	6921      	ldr	r1, [r4, #16]
 8002e18:	f8b0 0050 	ldrh.w	r0, [r0, #80]	; 0x50
 8002e1c:	428b      	cmp	r3, r1
 8002e1e:	bf84      	itt	hi
 8002e20:	1a5a      	subhi	r2, r3, r1
 8002e22:	460b      	movhi	r3, r1
 8002e24:	7821      	ldrb	r1, [r4, #0]
 8002e26:	61a2      	str	r2, [r4, #24]
 8002e28:	b280      	uxth	r0, r0
 8002e2a:	f205 420c 	addw	r2, r5, #1036	; 0x40c
 8002e2e:	0109      	lsls	r1, r1, #4
 8002e30:	4402      	add	r2, r0
 8002e32:	5a50      	ldrh	r0, [r2, r1]
 8002e34:	2b3e      	cmp	r3, #62	; 0x3e
 8002e36:	f3c0 0009 	ubfx	r0, r0, #0, #10
 8002e3a:	5250      	strh	r0, [r2, r1]
 8002e3c:	f200 80c5 	bhi.w	8002fca <USB_EPStartXfer+0x3fa>
 8002e40:	2b00      	cmp	r3, #0
 8002e42:	f040 80d2 	bne.w	8002fea <USB_EPStartXfer+0x41a>
 8002e46:	5a53      	ldrh	r3, [r2, r1]
 8002e48:	e0c8      	b.n	8002fdc <USB_EPStartXfer+0x40c>
 8002e4a:	78e3      	ldrb	r3, [r4, #3]
 8002e4c:	2b02      	cmp	r3, #2
 8002e4e:	d17c      	bne.n	8002f4a <USB_EPStartXfer+0x37a>
 8002e50:	2900      	cmp	r1, #0
 8002e52:	d14b      	bne.n	8002eec <USB_EPStartXfer+0x31c>
 8002e54:	f8b0 3050 	ldrh.w	r3, [r0, #80]	; 0x50
 8002e58:	7820      	ldrb	r0, [r4, #0]
 8002e5a:	b29b      	uxth	r3, r3
 8002e5c:	f205 4104 	addw	r1, r5, #1028	; 0x404
 8002e60:	0100      	lsls	r0, r0, #4
 8002e62:	4419      	add	r1, r3
 8002e64:	5a43      	ldrh	r3, [r0, r1]
 8002e66:	f3c3 0309 	ubfx	r3, r3, #0, #10
 8002e6a:	5243      	strh	r3, [r0, r1]
 8002e6c:	6923      	ldr	r3, [r4, #16]
 8002e6e:	2b3e      	cmp	r3, #62	; 0x3e
 8002e70:	d920      	bls.n	8002eb4 <USB_EPStartXfer+0x2e4>
 8002e72:	5a42      	ldrh	r2, [r0, r1]
 8002e74:	095e      	lsrs	r6, r3, #5
 8002e76:	06df      	lsls	r7, r3, #27
 8002e78:	bf08      	it	eq
 8002e7a:	f106 36ff 	addeq.w	r6, r6, #4294967295
 8002e7e:	b292      	uxth	r2, r2
 8002e80:	ea42 2286 	orr.w	r2, r2, r6, lsl #10
 8002e84:	ea6f 4242 	mvn.w	r2, r2, lsl #17
 8002e88:	ea6f 4252 	mvn.w	r2, r2, lsr #17
 8002e8c:	b292      	uxth	r2, r2
 8002e8e:	5242      	strh	r2, [r0, r1]
 8002e90:	f8b5 0050 	ldrh.w	r0, [r5, #80]	; 0x50
 8002e94:	7822      	ldrb	r2, [r4, #0]
 8002e96:	b280      	uxth	r0, r0
 8002e98:	f205 410c 	addw	r1, r5, #1036	; 0x40c
 8002e9c:	0112      	lsls	r2, r2, #4
 8002e9e:	4401      	add	r1, r0
 8002ea0:	5a50      	ldrh	r0, [r2, r1]
 8002ea2:	2b3e      	cmp	r3, #62	; 0x3e
 8002ea4:	f3c0 0009 	ubfx	r0, r0, #0, #10
 8002ea8:	5250      	strh	r0, [r2, r1]
 8002eaa:	d810      	bhi.n	8002ece <USB_EPStartXfer+0x2fe>
 8002eac:	2b00      	cmp	r3, #0
 8002eae:	d143      	bne.n	8002f38 <USB_EPStartXfer+0x368>
 8002eb0:	5a53      	ldrh	r3, [r2, r1]
 8002eb2:	e015      	b.n	8002ee0 <USB_EPStartXfer+0x310>
 8002eb4:	b90b      	cbnz	r3, 8002eba <USB_EPStartXfer+0x2ea>
 8002eb6:	5a42      	ldrh	r2, [r0, r1]
 8002eb8:	e7e4      	b.n	8002e84 <USB_EPStartXfer+0x2b4>
 8002eba:	07da      	lsls	r2, r3, #31
 8002ebc:	5a42      	ldrh	r2, [r0, r1]
 8002ebe:	ea4f 0653 	mov.w	r6, r3, lsr #1
 8002ec2:	bf48      	it	mi
 8002ec4:	3601      	addmi	r6, #1
 8002ec6:	b292      	uxth	r2, r2
 8002ec8:	ea42 2286 	orr.w	r2, r2, r6, lsl #10
 8002ecc:	e7de      	b.n	8002e8c <USB_EPStartXfer+0x2bc>
 8002ece:	0958      	lsrs	r0, r3, #5
 8002ed0:	06df      	lsls	r7, r3, #27
 8002ed2:	5a53      	ldrh	r3, [r2, r1]
 8002ed4:	bf08      	it	eq
 8002ed6:	f100 30ff 	addeq.w	r0, r0, #4294967295
 8002eda:	b29b      	uxth	r3, r3
 8002edc:	ea43 2380 	orr.w	r3, r3, r0, lsl #10
 8002ee0:	ea6f 4343 	mvn.w	r3, r3, lsl #17
 8002ee4:	ea6f 4353 	mvn.w	r3, r3, lsr #17
 8002ee8:	b29b      	uxth	r3, r3
 8002eea:	5253      	strh	r3, [r2, r1]
 8002eec:	69e3      	ldr	r3, [r4, #28]
 8002eee:	b1bb      	cbz	r3, 8002f20 <USB_EPStartXfer+0x350>
 8002ef0:	f244 0340 	movw	r3, #16448	; 0x4040
 8002ef4:	7822      	ldrb	r2, [r4, #0]
 8002ef6:	f835 1022 	ldrh.w	r1, [r5, r2, lsl #2]
 8002efa:	ea03 0001 	and.w	r0, r3, r1
 8002efe:	438b      	bics	r3, r1
 8002f00:	d000      	beq.n	8002f04 <USB_EPStartXfer+0x334>
 8002f02:	b968      	cbnz	r0, 8002f20 <USB_EPStartXfer+0x350>
 8002f04:	f835 3022 	ldrh.w	r3, [r5, r2, lsl #2]
 8002f08:	f423 43e0 	bic.w	r3, r3, #28672	; 0x7000
 8002f0c:	f023 0370 	bic.w	r3, r3, #112	; 0x70
 8002f10:	041b      	lsls	r3, r3, #16
 8002f12:	0c1b      	lsrs	r3, r3, #16
 8002f14:	f443 4300 	orr.w	r3, r3, #32768	; 0x8000
 8002f18:	f043 03c0 	orr.w	r3, r3, #192	; 0xc0
 8002f1c:	f825 3022 	strh.w	r3, [r5, r2, lsl #2]
 8002f20:	7822      	ldrb	r2, [r4, #0]
 8002f22:	f835 3022 	ldrh.w	r3, [r5, r2, lsl #2]
 8002f26:	f423 4380 	bic.w	r3, r3, #16384	; 0x4000
 8002f2a:	f023 0370 	bic.w	r3, r3, #112	; 0x70
 8002f2e:	041b      	lsls	r3, r3, #16
 8002f30:	0c1b      	lsrs	r3, r3, #16
 8002f32:	f483 5340 	eor.w	r3, r3, #12288	; 0x3000
 8002f36:	e675      	b.n	8002c24 <USB_EPStartXfer+0x54>
 8002f38:	0858      	lsrs	r0, r3, #1
 8002f3a:	07de      	lsls	r6, r3, #31
 8002f3c:	5a53      	ldrh	r3, [r2, r1]
 8002f3e:	bf48      	it	mi
 8002f40:	3001      	addmi	r0, #1
 8002f42:	b29b      	uxth	r3, r3
 8002f44:	ea43 2380 	orr.w	r3, r3, r0, lsl #10
 8002f48:	e7ce      	b.n	8002ee8 <USB_EPStartXfer+0x318>
 8002f4a:	2b01      	cmp	r3, #1
 8002f4c:	d156      	bne.n	8002ffc <USB_EPStartXfer+0x42c>
 8002f4e:	69a3      	ldr	r3, [r4, #24]
 8002f50:	6922      	ldr	r2, [r4, #16]
 8002f52:	4293      	cmp	r3, r2
 8002f54:	bf94      	ite	ls
 8002f56:	2000      	movls	r0, #0
 8002f58:	1a98      	subhi	r0, r3, r2
 8002f5a:	61a0      	str	r0, [r4, #24]
 8002f5c:	bf88      	it	hi
 8002f5e:	4613      	movhi	r3, r2
 8002f60:	2900      	cmp	r1, #0
 8002f62:	d1dd      	bne.n	8002f20 <USB_EPStartXfer+0x350>
 8002f64:	f8b5 2050 	ldrh.w	r2, [r5, #80]	; 0x50
 8002f68:	7820      	ldrb	r0, [r4, #0]
 8002f6a:	b292      	uxth	r2, r2
 8002f6c:	f205 4104 	addw	r1, r5, #1028	; 0x404
 8002f70:	0100      	lsls	r0, r0, #4
 8002f72:	4411      	add	r1, r2
 8002f74:	5a42      	ldrh	r2, [r0, r1]
 8002f76:	2b3e      	cmp	r3, #62	; 0x3e
 8002f78:	f3c2 0209 	ubfx	r2, r2, #0, #10
 8002f7c:	5242      	strh	r2, [r0, r1]
 8002f7e:	d918      	bls.n	8002fb2 <USB_EPStartXfer+0x3e2>
 8002f80:	06da      	lsls	r2, r3, #27
 8002f82:	5a42      	ldrh	r2, [r0, r1]
 8002f84:	ea4f 1653 	mov.w	r6, r3, lsr #5
 8002f88:	bf08      	it	eq
 8002f8a:	f106 36ff 	addeq.w	r6, r6, #4294967295
 8002f8e:	b292      	uxth	r2, r2
 8002f90:	ea42 2286 	orr.w	r2, r2, r6, lsl #10
 8002f94:	ea6f 4242 	mvn.w	r2, r2, lsl #17
 8002f98:	ea6f 4252 	mvn.w	r2, r2, lsr #17
 8002f9c:	b292      	uxth	r2, r2
 8002f9e:	5242      	strh	r2, [r0, r1]
 8002fa0:	f8b5 0050 	ldrh.w	r0, [r5, #80]	; 0x50
 8002fa4:	7822      	ldrb	r2, [r4, #0]
 8002fa6:	b280      	uxth	r0, r0
 8002fa8:	f205 410c 	addw	r1, r5, #1036	; 0x40c
 8002fac:	0112      	lsls	r2, r2, #4
 8002fae:	4401      	add	r1, r0
 8002fb0:	e73f      	b.n	8002e32 <USB_EPStartXfer+0x262>
 8002fb2:	b90b      	cbnz	r3, 8002fb8 <USB_EPStartXfer+0x3e8>
 8002fb4:	5a42      	ldrh	r2, [r0, r1]
 8002fb6:	e7ed      	b.n	8002f94 <USB_EPStartXfer+0x3c4>
 8002fb8:	5a42      	ldrh	r2, [r0, r1]
 8002fba:	085e      	lsrs	r6, r3, #1
 8002fbc:	07df      	lsls	r7, r3, #31
 8002fbe:	bf48      	it	mi
 8002fc0:	3601      	addmi	r6, #1
 8002fc2:	b292      	uxth	r2, r2
 8002fc4:	ea42 2286 	orr.w	r2, r2, r6, lsl #10
 8002fc8:	e7e8      	b.n	8002f9c <USB_EPStartXfer+0x3cc>
 8002fca:	0958      	lsrs	r0, r3, #5
 8002fcc:	06de      	lsls	r6, r3, #27
 8002fce:	5a53      	ldrh	r3, [r2, r1]
 8002fd0:	bf08      	it	eq
 8002fd2:	f100 30ff 	addeq.w	r0, r0, #4294967295
 8002fd6:	b29b      	uxth	r3, r3
 8002fd8:	ea43 2380 	orr.w	r3, r3, r0, lsl #10
 8002fdc:	ea6f 4343 	mvn.w	r3, r3, lsl #17
 8002fe0:	ea6f 4353 	mvn.w	r3, r3, lsr #17
 8002fe4:	b29b      	uxth	r3, r3
 8002fe6:	5253      	strh	r3, [r2, r1]
 8002fe8:	e79a      	b.n	8002f20 <USB_EPStartXfer+0x350>
 8002fea:	0858      	lsrs	r0, r3, #1
 8002fec:	07db      	lsls	r3, r3, #31
 8002fee:	5a53      	ldrh	r3, [r2, r1]
 8002ff0:	bf48      	it	mi
 8002ff2:	3001      	addmi	r0, #1
 8002ff4:	b29b      	uxth	r3, r3
 8002ff6:	ea43 2380 	orr.w	r3, r3, r0, lsl #10
 8002ffa:	e7f3      	b.n	8002fe4 <USB_EPStartXfer+0x414>
 8002ffc:	2001      	movs	r0, #1
 8002ffe:	e618      	b.n	8002c32 <USB_EPStartXfer+0x62>

08003000 <USB_ReadPMA>:
 8003000:	eb00 0042 	add.w	r0, r0, r2, lsl #1
 8003004:	b5f0      	push	{r4, r5, r6, r7, lr}
 8003006:	f500 6080 	add.w	r0, r0, #1024	; 0x400
 800300a:	085d      	lsrs	r5, r3, #1
 800300c:	460c      	mov	r4, r1
 800300e:	4607      	mov	r7, r0
 8003010:	462e      	mov	r6, r5
 8003012:	3402      	adds	r4, #2
 8003014:	b936      	cbnz	r6, 8003024 <USB_ReadPMA+0x24>
 8003016:	07db      	lsls	r3, r3, #31
 8003018:	bf44      	itt	mi
 800301a:	f830 3025 	ldrhmi.w	r3, [r0, r5, lsl #2]
 800301e:	f801 3015 	strbmi.w	r3, [r1, r5, lsl #1]
 8003022:	bdf0      	pop	{r4, r5, r6, r7, pc}
 8003024:	f837 2b04 	ldrh.w	r2, [r7], #4
 8003028:	3e01      	subs	r6, #1
 800302a:	b292      	uxth	r2, r2
 800302c:	f804 2c02 	strb.w	r2, [r4, #-2]
 8003030:	0a12      	lsrs	r2, r2, #8
 8003032:	f804 2c01 	strb.w	r2, [r4, #-1]
 8003036:	e7ec      	b.n	8003012 <USB_ReadPMA+0x12>

08003038 <USBD_CDC_EP0_RxReady>:
 8003038:	f8d0 32bc 	ldr.w	r3, [r0, #700]	; 0x2bc
 800303c:	b510      	push	{r4, lr}
 800303e:	b16b      	cbz	r3, 800305c <USBD_CDC_EP0_RxReady+0x24>
 8003040:	f8d0 42b8 	ldr.w	r4, [r0, #696]	; 0x2b8
 8003044:	f894 0200 	ldrb.w	r0, [r4, #512]	; 0x200
 8003048:	28ff      	cmp	r0, #255	; 0xff
 800304a:	d007      	beq.n	800305c <USBD_CDC_EP0_RxReady+0x24>
 800304c:	689b      	ldr	r3, [r3, #8]
 800304e:	4621      	mov	r1, r4
 8003050:	f894 2201 	ldrb.w	r2, [r4, #513]	; 0x201
 8003054:	4798      	blx	r3
 8003056:	23ff      	movs	r3, #255	; 0xff
 8003058:	f884 3200 	strb.w	r3, [r4, #512]	; 0x200
 800305c:	2000      	movs	r0, #0
 800305e:	bd10      	pop	{r4, pc}

08003060 <USBD_CDC_GetFSCfgDesc>:
 8003060:	2343      	movs	r3, #67	; 0x43
 8003062:	8003      	strh	r3, [r0, #0]
 8003064:	4800      	ldr	r0, [pc, #0]	; (8003068 <USBD_CDC_GetFSCfgDesc+0x8>)
 8003066:	4770      	bx	lr
 8003068:	20000048 	.word	0x20000048

0800306c <USBD_CDC_GetHSCfgDesc>:
 800306c:	2343      	movs	r3, #67	; 0x43
 800306e:	8003      	strh	r3, [r0, #0]
 8003070:	4800      	ldr	r0, [pc, #0]	; (8003074 <USBD_CDC_GetHSCfgDesc+0x8>)
 8003072:	4770      	bx	lr
 8003074:	2000008c 	.word	0x2000008c

08003078 <USBD_CDC_GetOtherSpeedCfgDesc>:
 8003078:	2343      	movs	r3, #67	; 0x43
 800307a:	8003      	strh	r3, [r0, #0]
 800307c:	4800      	ldr	r0, [pc, #0]	; (8003080 <USBD_CDC_GetOtherSpeedCfgDesc+0x8>)
 800307e:	4770      	bx	lr
 8003080:	200000dc 	.word	0x200000dc

08003084 <USBD_CDC_GetDeviceQualifierDescriptor>:
 8003084:	230a      	movs	r3, #10
 8003086:	8003      	strh	r3, [r0, #0]
 8003088:	4800      	ldr	r0, [pc, #0]	; (800308c <USBD_CDC_GetDeviceQualifierDescriptor+0x8>)
 800308a:	4770      	bx	lr
 800308c:	200000d0 	.word	0x200000d0

08003090 <USBD_CDC_DataOut>:
 8003090:	b538      	push	{r3, r4, r5, lr}
 8003092:	4604      	mov	r4, r0
 8003094:	f8d0 52b8 	ldr.w	r5, [r0, #696]	; 0x2b8
 8003098:	f000 ff05 	bl	8003ea6 <USBD_LL_GetRxDataSize>
 800309c:	f8d4 32b8 	ldr.w	r3, [r4, #696]	; 0x2b8
 80030a0:	f8c5 020c 	str.w	r0, [r5, #524]	; 0x20c
 80030a4:	b14b      	cbz	r3, 80030ba <USBD_CDC_DataOut+0x2a>
 80030a6:	f8d4 32bc 	ldr.w	r3, [r4, #700]	; 0x2bc
 80030aa:	f8d5 0204 	ldr.w	r0, [r5, #516]	; 0x204
 80030ae:	68db      	ldr	r3, [r3, #12]
 80030b0:	f505 7103 	add.w	r1, r5, #524	; 0x20c
 80030b4:	4798      	blx	r3
 80030b6:	2000      	movs	r0, #0
 80030b8:	bd38      	pop	{r3, r4, r5, pc}
 80030ba:	2002      	movs	r0, #2
 80030bc:	e7fc      	b.n	80030b8 <USBD_CDC_DataOut+0x28>

080030be <USBD_CDC_DataIn>:
 80030be:	b5f8      	push	{r3, r4, r5, r6, r7, lr}
 80030c0:	f8d0 62b8 	ldr.w	r6, [r0, #696]	; 0x2b8
 80030c4:	b1d6      	cbz	r6, 80030fc <USBD_CDC_DataIn+0x3e>
 80030c6:	2414      	movs	r4, #20
 80030c8:	fb04 0301 	mla	r3, r4, r1, r0
 80030cc:	69dc      	ldr	r4, [r3, #28]
 80030ce:	f8d0 52c0 	ldr.w	r5, [r0, #704]	; 0x2c0
 80030d2:	b17c      	cbz	r4, 80030f4 <USBD_CDC_DataIn+0x36>
 80030d4:	2728      	movs	r7, #40	; 0x28
 80030d6:	fb07 5201 	mla	r2, r7, r1, r5
 80030da:	6b92      	ldr	r2, [r2, #56]	; 0x38
 80030dc:	fbb4 f5f2 	udiv	r5, r4, r2
 80030e0:	fb02 4415 	mls	r4, r2, r5, r4
 80030e4:	b934      	cbnz	r4, 80030f4 <USBD_CDC_DataIn+0x36>
 80030e6:	61dc      	str	r4, [r3, #28]
 80030e8:	4622      	mov	r2, r4
 80030ea:	4623      	mov	r3, r4
 80030ec:	f000 fec9 	bl	8003e82 <USBD_LL_Transmit>
 80030f0:	4620      	mov	r0, r4
 80030f2:	bdf8      	pop	{r3, r4, r5, r6, r7, pc}
 80030f4:	2000      	movs	r0, #0
 80030f6:	f8c6 0214 	str.w	r0, [r6, #532]	; 0x214
 80030fa:	e7fa      	b.n	80030f2 <USBD_CDC_DataIn+0x34>
 80030fc:	2002      	movs	r0, #2
 80030fe:	e7f8      	b.n	80030f2 <USBD_CDC_DataIn+0x34>

08003100 <USBD_CDC_Setup>:
 8003100:	e92d 43f7 	stmdb	sp!, {r0, r1, r2, r4, r5, r6, r7, r8, r9, lr}
 8003104:	f04f 0800 	mov.w	r8, #0
 8003108:	780a      	ldrb	r2, [r1, #0]
 800310a:	4605      	mov	r5, r0
 800310c:	f012 0460 	ands.w	r4, r2, #96	; 0x60
 8003110:	460e      	mov	r6, r1
 8003112:	f8d0 72b8 	ldr.w	r7, [r0, #696]	; 0x2b8
 8003116:	f88d 8005 	strb.w	r8, [sp, #5]
 800311a:	f8ad 8006 	strh.w	r8, [sp, #6]
 800311e:	d028      	beq.n	8003172 <USBD_CDC_Setup+0x72>
 8003120:	2c20      	cmp	r4, #32
 8003122:	d142      	bne.n	80031aa <USBD_CDC_Setup+0xaa>
 8003124:	88cc      	ldrh	r4, [r1, #6]
 8003126:	784b      	ldrb	r3, [r1, #1]
 8003128:	b1e4      	cbz	r4, 8003164 <USBD_CDC_Setup+0x64>
 800312a:	0612      	lsls	r2, r2, #24
 800312c:	d511      	bpl.n	8003152 <USBD_CDC_Setup+0x52>
 800312e:	f8d0 22bc 	ldr.w	r2, [r0, #700]	; 0x2bc
 8003132:	4639      	mov	r1, r7
 8003134:	f8d2 9008 	ldr.w	r9, [r2, #8]
 8003138:	4618      	mov	r0, r3
 800313a:	4622      	mov	r2, r4
 800313c:	47c8      	blx	r9
 800313e:	4639      	mov	r1, r7
 8003140:	4628      	mov	r0, r5
 8003142:	88f2      	ldrh	r2, [r6, #6]
 8003144:	f000 fc65 	bl	8003a12 <USBD_CtlSendData>
 8003148:	4644      	mov	r4, r8
 800314a:	4620      	mov	r0, r4
 800314c:	b003      	add	sp, #12
 800314e:	e8bd 83f0 	ldmia.w	sp!, {r4, r5, r6, r7, r8, r9, pc}
 8003152:	4622      	mov	r2, r4
 8003154:	4639      	mov	r1, r7
 8003156:	f887 3200 	strb.w	r3, [r7, #512]	; 0x200
 800315a:	f887 4201 	strb.w	r4, [r7, #513]	; 0x201
 800315e:	f000 fc6d 	bl	8003a3c <USBD_CtlPrepareRx>
 8003162:	e7f1      	b.n	8003148 <USBD_CDC_Setup+0x48>
 8003164:	f8d0 22bc 	ldr.w	r2, [r0, #700]	; 0x2bc
 8003168:	4618      	mov	r0, r3
 800316a:	6895      	ldr	r5, [r2, #8]
 800316c:	4622      	mov	r2, r4
 800316e:	47a8      	blx	r5
 8003170:	e7eb      	b.n	800314a <USBD_CDC_Setup+0x4a>
 8003172:	784b      	ldrb	r3, [r1, #1]
 8003174:	2b0a      	cmp	r3, #10
 8003176:	d00c      	beq.n	8003192 <USBD_CDC_Setup+0x92>
 8003178:	2b0b      	cmp	r3, #11
 800317a:	d012      	beq.n	80031a2 <USBD_CDC_Setup+0xa2>
 800317c:	b9ab      	cbnz	r3, 80031aa <USBD_CDC_Setup+0xaa>
 800317e:	f890 329c 	ldrb.w	r3, [r0, #668]	; 0x29c
 8003182:	2b03      	cmp	r3, #3
 8003184:	d111      	bne.n	80031aa <USBD_CDC_Setup+0xaa>
 8003186:	2202      	movs	r2, #2
 8003188:	f10d 0106 	add.w	r1, sp, #6
 800318c:	f000 fc41 	bl	8003a12 <USBD_CtlSendData>
 8003190:	e7db      	b.n	800314a <USBD_CDC_Setup+0x4a>
 8003192:	f890 329c 	ldrb.w	r3, [r0, #668]	; 0x29c
 8003196:	2b03      	cmp	r3, #3
 8003198:	d107      	bne.n	80031aa <USBD_CDC_Setup+0xaa>
 800319a:	2201      	movs	r2, #1
 800319c:	f10d 0105 	add.w	r1, sp, #5
 80031a0:	e7f4      	b.n	800318c <USBD_CDC_Setup+0x8c>
 80031a2:	f890 329c 	ldrb.w	r3, [r0, #668]	; 0x29c
 80031a6:	2b03      	cmp	r3, #3
 80031a8:	d0cf      	beq.n	800314a <USBD_CDC_Setup+0x4a>
 80031aa:	4631      	mov	r1, r6
 80031ac:	4628      	mov	r0, r5
 80031ae:	f000 fc09 	bl	80039c4 <USBD_CtlError>
 80031b2:	2402      	movs	r4, #2
 80031b4:	e7c9      	b.n	800314a <USBD_CDC_Setup+0x4a>

080031b6 <USBD_CDC_DeInit>:
 80031b6:	b538      	push	{r3, r4, r5, lr}
 80031b8:	4604      	mov	r4, r0
 80031ba:	2500      	movs	r5, #0
 80031bc:	2181      	movs	r1, #129	; 0x81
 80031be:	f000 fe2a 	bl	8003e16 <USBD_LL_CloseEP>
 80031c2:	2101      	movs	r1, #1
 80031c4:	4620      	mov	r0, r4
 80031c6:	62e5      	str	r5, [r4, #44]	; 0x2c
 80031c8:	f000 fe25 	bl	8003e16 <USBD_LL_CloseEP>
 80031cc:	2182      	movs	r1, #130	; 0x82
 80031ce:	4620      	mov	r0, r4
 80031d0:	f8c4 516c 	str.w	r5, [r4, #364]	; 0x16c
 80031d4:	f000 fe1f 	bl	8003e16 <USBD_LL_CloseEP>
 80031d8:	f8d4 32b8 	ldr.w	r3, [r4, #696]	; 0x2b8
 80031dc:	6425      	str	r5, [r4, #64]	; 0x40
 80031de:	b14b      	cbz	r3, 80031f4 <USBD_CDC_DeInit+0x3e>
 80031e0:	f8d4 32bc 	ldr.w	r3, [r4, #700]	; 0x2bc
 80031e4:	685b      	ldr	r3, [r3, #4]
 80031e6:	4798      	blx	r3
 80031e8:	f8d4 02b8 	ldr.w	r0, [r4, #696]	; 0x2b8
 80031ec:	f000 fe64 	bl	8003eb8 <USBD_static_free>
 80031f0:	f8c4 52b8 	str.w	r5, [r4, #696]	; 0x2b8
 80031f4:	2000      	movs	r0, #0
 80031f6:	bd38      	pop	{r3, r4, r5, pc}

080031f8 <USBD_CDC_Init>:
 80031f8:	e92d 41f0 	stmdb	sp!, {r4, r5, r6, r7, r8, lr}
 80031fc:	7c03      	ldrb	r3, [r0, #16]
 80031fe:	4604      	mov	r4, r0
 8003200:	bbb3      	cbnz	r3, 8003270 <USBD_CDC_Init+0x78>
 8003202:	f44f 7300 	mov.w	r3, #512	; 0x200
 8003206:	2181      	movs	r1, #129	; 0x81
 8003208:	2202      	movs	r2, #2
 800320a:	f000 fdf8 	bl	8003dfe <USBD_LL_OpenEP>
 800320e:	2101      	movs	r1, #1
 8003210:	f44f 7300 	mov.w	r3, #512	; 0x200
 8003214:	62e1      	str	r1, [r4, #44]	; 0x2c
 8003216:	2601      	movs	r6, #1
 8003218:	2202      	movs	r2, #2
 800321a:	4620      	mov	r0, r4
 800321c:	f000 fdef 	bl	8003dfe <USBD_LL_OpenEP>
 8003220:	2308      	movs	r3, #8
 8003222:	2203      	movs	r2, #3
 8003224:	2182      	movs	r1, #130	; 0x82
 8003226:	4620      	mov	r0, r4
 8003228:	f8c4 616c 	str.w	r6, [r4, #364]	; 0x16c
 800322c:	f000 fde7 	bl	8003dfe <USBD_LL_OpenEP>
 8003230:	f44f 7007 	mov.w	r0, #540	; 0x21c
 8003234:	6426      	str	r6, [r4, #64]	; 0x40
 8003236:	f000 fe3b 	bl	8003eb0 <USBD_static_malloc>
 800323a:	4605      	mov	r5, r0
 800323c:	f8c4 02b8 	str.w	r0, [r4, #696]	; 0x2b8
 8003240:	b340      	cbz	r0, 8003294 <USBD_CDC_Init+0x9c>
 8003242:	f04f 0800 	mov.w	r8, #0
 8003246:	f8d4 32bc 	ldr.w	r3, [r4, #700]	; 0x2bc
 800324a:	681b      	ldr	r3, [r3, #0]
 800324c:	4798      	blx	r3
 800324e:	f8c5 8214 	str.w	r8, [r5, #532]	; 0x214
 8003252:	f8c5 8218 	str.w	r8, [r5, #536]	; 0x218
 8003256:	7c27      	ldrb	r7, [r4, #16]
 8003258:	b99f      	cbnz	r7, 8003282 <USBD_CDC_Init+0x8a>
 800325a:	f44f 7300 	mov.w	r3, #512	; 0x200
 800325e:	4631      	mov	r1, r6
 8003260:	4620      	mov	r0, r4
 8003262:	f8d5 2204 	ldr.w	r2, [r5, #516]	; 0x204
 8003266:	f000 fe15 	bl	8003e94 <USBD_LL_PrepareReceive>
 800326a:	4638      	mov	r0, r7
 800326c:	e8bd 81f0 	ldmia.w	sp!, {r4, r5, r6, r7, r8, pc}
 8003270:	2340      	movs	r3, #64	; 0x40
 8003272:	2181      	movs	r1, #129	; 0x81
 8003274:	2202      	movs	r2, #2
 8003276:	f000 fdc2 	bl	8003dfe <USBD_LL_OpenEP>
 800327a:	2101      	movs	r1, #1
 800327c:	2340      	movs	r3, #64	; 0x40
 800327e:	62e1      	str	r1, [r4, #44]	; 0x2c
 8003280:	e7c9      	b.n	8003216 <USBD_CDC_Init+0x1e>
 8003282:	2340      	movs	r3, #64	; 0x40
 8003284:	4631      	mov	r1, r6
 8003286:	4620      	mov	r0, r4
 8003288:	f8d5 2204 	ldr.w	r2, [r5, #516]	; 0x204
 800328c:	f000 fe02 	bl	8003e94 <USBD_LL_PrepareReceive>
 8003290:	4647      	mov	r7, r8
 8003292:	e7ea      	b.n	800326a <USBD_CDC_Init+0x72>
 8003294:	4637      	mov	r7, r6
 8003296:	e7e8      	b.n	800326a <USBD_CDC_Init+0x72>

08003298 <USBD_CDC_RegisterInterface>:
 8003298:	b119      	cbz	r1, 80032a2 <USBD_CDC_RegisterInterface+0xa>
 800329a:	f8c0 12bc 	str.w	r1, [r0, #700]	; 0x2bc
 800329e:	2000      	movs	r0, #0
 80032a0:	4770      	bx	lr
 80032a2:	2002      	movs	r0, #2
 80032a4:	4770      	bx	lr

080032a6 <USBD_CDC_SetTxBuffer>:
 80032a6:	f8d0 32b8 	ldr.w	r3, [r0, #696]	; 0x2b8
 80032aa:	2000      	movs	r0, #0
 80032ac:	f8c3 1208 	str.w	r1, [r3, #520]	; 0x208
 80032b0:	f8c3 2210 	str.w	r2, [r3, #528]	; 0x210
 80032b4:	4770      	bx	lr

080032b6 <USBD_CDC_SetRxBuffer>:
 80032b6:	f8d0 32b8 	ldr.w	r3, [r0, #696]	; 0x2b8
 80032ba:	2000      	movs	r0, #0
 80032bc:	f8c3 1204 	str.w	r1, [r3, #516]	; 0x204
 80032c0:	4770      	bx	lr

080032c2 <USBD_CDC_TransmitPacket>:
 80032c2:	f8d0 22b8 	ldr.w	r2, [r0, #696]	; 0x2b8
 80032c6:	b510      	push	{r4, lr}
 80032c8:	b182      	cbz	r2, 80032ec <USBD_CDC_TransmitPacket+0x2a>
 80032ca:	f8d2 4214 	ldr.w	r4, [r2, #532]	; 0x214
 80032ce:	2301      	movs	r3, #1
 80032d0:	b974      	cbnz	r4, 80032f0 <USBD_CDC_TransmitPacket+0x2e>
 80032d2:	f8c2 3214 	str.w	r3, [r2, #532]	; 0x214
 80032d6:	f8d2 3210 	ldr.w	r3, [r2, #528]	; 0x210
 80032da:	2181      	movs	r1, #129	; 0x81
 80032dc:	6303      	str	r3, [r0, #48]	; 0x30
 80032de:	f8d2 2208 	ldr.w	r2, [r2, #520]	; 0x208
 80032e2:	b29b      	uxth	r3, r3
 80032e4:	f000 fdcd 	bl	8003e82 <USBD_LL_Transmit>
 80032e8:	4620      	mov	r0, r4
 80032ea:	bd10      	pop	{r4, pc}
 80032ec:	2002      	movs	r0, #2
 80032ee:	e7fc      	b.n	80032ea <USBD_CDC_TransmitPacket+0x28>
 80032f0:	4618      	mov	r0, r3
 80032f2:	e7fa      	b.n	80032ea <USBD_CDC_TransmitPacket+0x28>

080032f4 <USBD_CDC_ReceivePacket>:
 80032f4:	f8d0 22b8 	ldr.w	r2, [r0, #696]	; 0x2b8
 80032f8:	b510      	push	{r4, lr}
 80032fa:	b182      	cbz	r2, 800331e <USBD_CDC_ReceivePacket+0x2a>
 80032fc:	7c04      	ldrb	r4, [r0, #16]
 80032fe:	f8d2 2204 	ldr.w	r2, [r2, #516]	; 0x204
 8003302:	b934      	cbnz	r4, 8003312 <USBD_CDC_ReceivePacket+0x1e>
 8003304:	f44f 7300 	mov.w	r3, #512	; 0x200
 8003308:	2101      	movs	r1, #1
 800330a:	f000 fdc3 	bl	8003e94 <USBD_LL_PrepareReceive>
 800330e:	4620      	mov	r0, r4
 8003310:	bd10      	pop	{r4, pc}
 8003312:	2340      	movs	r3, #64	; 0x40
 8003314:	2101      	movs	r1, #1
 8003316:	f000 fdbd 	bl	8003e94 <USBD_LL_PrepareReceive>
 800331a:	2400      	movs	r4, #0
 800331c:	e7f7      	b.n	800330e <USBD_CDC_ReceivePacket+0x1a>
 800331e:	2402      	movs	r4, #2
 8003320:	e7f5      	b.n	800330e <USBD_CDC_ReceivePacket+0x1a>
	...

08003324 <USBD_Init>:
 8003324:	b508      	push	{r3, lr}
 8003326:	b950      	cbnz	r0, 800333e <USBD_Init+0x1a>
 8003328:	480d      	ldr	r0, [pc, #52]	; (8003360 <USBD_Init+0x3c>)
 800332a:	f000 fe89 	bl	8004040 <iprintf>
 800332e:	480d      	ldr	r0, [pc, #52]	; (8003364 <USBD_Init+0x40>)
 8003330:	f000 fe86 	bl	8004040 <iprintf>
 8003334:	200a      	movs	r0, #10
 8003336:	f000 fe95 	bl	8004064 <putchar>
 800333a:	2002      	movs	r0, #2
 800333c:	bd08      	pop	{r3, pc}
 800333e:	f8d0 32b4 	ldr.w	r3, [r0, #692]	; 0x2b4
 8003342:	b113      	cbz	r3, 800334a <USBD_Init+0x26>
 8003344:	2300      	movs	r3, #0
 8003346:	f8c0 32b4 	str.w	r3, [r0, #692]	; 0x2b4
 800334a:	b109      	cbz	r1, 8003350 <USBD_Init+0x2c>
 800334c:	f8c0 12b0 	str.w	r1, [r0, #688]	; 0x2b0
 8003350:	2301      	movs	r3, #1
 8003352:	7002      	strb	r2, [r0, #0]
 8003354:	f880 329c 	strb.w	r3, [r0, #668]	; 0x29c
 8003358:	f000 fd06 	bl	8003d68 <USBD_LL_Init>
 800335c:	2000      	movs	r0, #0
 800335e:	e7ed      	b.n	800333c <USBD_Init+0x18>
 8003360:	080051d7 	.word	0x080051d7
 8003364:	080051df 	.word	0x080051df

08003368 <USBD_RegisterClass>:
 8003368:	b508      	push	{r3, lr}
 800336a:	b119      	cbz	r1, 8003374 <USBD_RegisterClass+0xc>
 800336c:	f8c0 12b4 	str.w	r1, [r0, #692]	; 0x2b4
 8003370:	2000      	movs	r0, #0
 8003372:	bd08      	pop	{r3, pc}
 8003374:	4805      	ldr	r0, [pc, #20]	; (800338c <USBD_RegisterClass+0x24>)
 8003376:	f000 fe63 	bl	8004040 <iprintf>
 800337a:	4805      	ldr	r0, [pc, #20]	; (8003390 <USBD_RegisterClass+0x28>)
 800337c:	f000 fe60 	bl	8004040 <iprintf>
 8003380:	200a      	movs	r0, #10
 8003382:	f000 fe6f 	bl	8004064 <putchar>
 8003386:	2002      	movs	r0, #2
 8003388:	e7f3      	b.n	8003372 <USBD_RegisterClass+0xa>
 800338a:	bf00      	nop
 800338c:	080051d7 	.word	0x080051d7
 8003390:	080051f5 	.word	0x080051f5

08003394 <USBD_Start>:
 8003394:	b508      	push	{r3, lr}
 8003396:	f000 fd29 	bl	8003dec <USBD_LL_Start>
 800339a:	2000      	movs	r0, #0
 800339c:	bd08      	pop	{r3, pc}

0800339e <USBD_SetClassConfig>:
 800339e:	b508      	push	{r3, lr}
 80033a0:	f8d0 32b4 	ldr.w	r3, [r0, #692]	; 0x2b4
 80033a4:	b133      	cbz	r3, 80033b4 <USBD_SetClassConfig+0x16>
 80033a6:	681b      	ldr	r3, [r3, #0]
 80033a8:	4798      	blx	r3
 80033aa:	3800      	subs	r0, #0
 80033ac:	bf18      	it	ne
 80033ae:	2001      	movne	r0, #1
 80033b0:	0040      	lsls	r0, r0, #1
 80033b2:	bd08      	pop	{r3, pc}
 80033b4:	2002      	movs	r0, #2
 80033b6:	e7fc      	b.n	80033b2 <USBD_SetClassConfig+0x14>

080033b8 <USBD_ClrClassConfig>:
 80033b8:	b508      	push	{r3, lr}
 80033ba:	f8d0 32b4 	ldr.w	r3, [r0, #692]	; 0x2b4
 80033be:	685b      	ldr	r3, [r3, #4]
 80033c0:	4798      	blx	r3
 80033c2:	2000      	movs	r0, #0
 80033c4:	bd08      	pop	{r3, pc}

080033c6 <USBD_LL_SetupStage>:
 80033c6:	b538      	push	{r3, r4, r5, lr}
 80033c8:	f500 752a 	add.w	r5, r0, #680	; 0x2a8
 80033cc:	4604      	mov	r4, r0
 80033ce:	4628      	mov	r0, r5
 80033d0:	f000 fae4 	bl	800399c <USBD_ParseSetupRequest>
 80033d4:	2301      	movs	r3, #1
 80033d6:	f894 12a8 	ldrb.w	r1, [r4, #680]	; 0x2a8
 80033da:	f8c4 3294 	str.w	r3, [r4, #660]	; 0x294
 80033de:	f8b4 32ae 	ldrh.w	r3, [r4, #686]	; 0x2ae
 80033e2:	f8c4 3298 	str.w	r3, [r4, #664]	; 0x298
 80033e6:	f001 031f 	and.w	r3, r1, #31
 80033ea:	2b01      	cmp	r3, #1
 80033ec:	d008      	beq.n	8003400 <USBD_LL_SetupStage+0x3a>
 80033ee:	2b02      	cmp	r3, #2
 80033f0:	d00b      	beq.n	800340a <USBD_LL_SetupStage+0x44>
 80033f2:	b97b      	cbnz	r3, 8003414 <USBD_LL_SetupStage+0x4e>
 80033f4:	4629      	mov	r1, r5
 80033f6:	4620      	mov	r0, r4
 80033f8:	f000 f8fc 	bl	80035f4 <USBD_StdDevReq>
 80033fc:	2000      	movs	r0, #0
 80033fe:	bd38      	pop	{r3, r4, r5, pc}
 8003400:	4629      	mov	r1, r5
 8003402:	4620      	mov	r0, r4
 8003404:	f000 fa1e 	bl	8003844 <USBD_StdItfReq>
 8003408:	e7f8      	b.n	80033fc <USBD_LL_SetupStage+0x36>
 800340a:	4629      	mov	r1, r5
 800340c:	4620      	mov	r0, r4
 800340e:	f000 fa3d 	bl	800388c <USBD_StdEPReq>
 8003412:	e7f3      	b.n	80033fc <USBD_LL_SetupStage+0x36>
 8003414:	4620      	mov	r0, r4
 8003416:	f001 0180 	and.w	r1, r1, #128	; 0x80
 800341a:	f000 fd05 	bl	8003e28 <USBD_LL_StallEP>
 800341e:	e7ed      	b.n	80033fc <USBD_LL_SetupStage+0x36>

08003420 <USBD_LL_DataOutStage>:
 8003420:	b5f8      	push	{r3, r4, r5, r6, r7, lr}
 8003422:	4604      	mov	r4, r0
 8003424:	4617      	mov	r7, r2
 8003426:	460d      	mov	r5, r1
 8003428:	bb39      	cbnz	r1, 800347a <USBD_LL_DataOutStage+0x5a>
 800342a:	f8d0 3294 	ldr.w	r3, [r0, #660]	; 0x294
 800342e:	2b03      	cmp	r3, #3
 8003430:	d11c      	bne.n	800346c <USBD_LL_DataOutStage+0x4c>
 8003432:	e9d0 6258 	ldrd	r6, r2, [r0, #352]	; 0x160
 8003436:	4296      	cmp	r6, r2
 8003438:	d90b      	bls.n	8003452 <USBD_LL_DataOutStage+0x32>
 800343a:	1ab6      	subs	r6, r6, r2
 800343c:	42b2      	cmp	r2, r6
 800343e:	4639      	mov	r1, r7
 8003440:	f8c0 6160 	str.w	r6, [r0, #352]	; 0x160
 8003444:	bf8c      	ite	hi
 8003446:	b2b2      	uxthhi	r2, r6
 8003448:	b292      	uxthls	r2, r2
 800344a:	f000 fb04 	bl	8003a56 <USBD_CtlContinueRx>
 800344e:	4628      	mov	r0, r5
 8003450:	bdf8      	pop	{r3, r4, r5, r6, r7, pc}
 8003452:	f8d0 32b4 	ldr.w	r3, [r0, #692]	; 0x2b4
 8003456:	691b      	ldr	r3, [r3, #16]
 8003458:	b123      	cbz	r3, 8003464 <USBD_LL_DataOutStage+0x44>
 800345a:	f890 229c 	ldrb.w	r2, [r0, #668]	; 0x29c
 800345e:	2a03      	cmp	r2, #3
 8003460:	d100      	bne.n	8003464 <USBD_LL_DataOutStage+0x44>
 8003462:	4798      	blx	r3
 8003464:	4620      	mov	r0, r4
 8003466:	f000 fafe 	bl	8003a66 <USBD_CtlSendStatus>
 800346a:	e7f0      	b.n	800344e <USBD_LL_DataOutStage+0x2e>
 800346c:	2b05      	cmp	r3, #5
 800346e:	d1ee      	bne.n	800344e <USBD_LL_DataOutStage+0x2e>
 8003470:	f8c4 1294 	str.w	r1, [r4, #660]	; 0x294
 8003474:	f000 fcd8 	bl	8003e28 <USBD_LL_StallEP>
 8003478:	e7e9      	b.n	800344e <USBD_LL_DataOutStage+0x2e>
 800347a:	f8d0 32b4 	ldr.w	r3, [r0, #692]	; 0x2b4
 800347e:	699b      	ldr	r3, [r3, #24]
 8003480:	b133      	cbz	r3, 8003490 <USBD_LL_DataOutStage+0x70>
 8003482:	f890 229c 	ldrb.w	r2, [r0, #668]	; 0x29c
 8003486:	2a03      	cmp	r2, #3
 8003488:	d102      	bne.n	8003490 <USBD_LL_DataOutStage+0x70>
 800348a:	4798      	blx	r3
 800348c:	2500      	movs	r5, #0
 800348e:	e7de      	b.n	800344e <USBD_LL_DataOutStage+0x2e>
 8003490:	2502      	movs	r5, #2
 8003492:	e7dc      	b.n	800344e <USBD_LL_DataOutStage+0x2e>

08003494 <USBD_LL_DataInStage>:
 8003494:	b5f8      	push	{r3, r4, r5, r6, r7, lr}
 8003496:	4604      	mov	r4, r0
 8003498:	4617      	mov	r7, r2
 800349a:	460d      	mov	r5, r1
 800349c:	2900      	cmp	r1, #0
 800349e:	d147      	bne.n	8003530 <USBD_LL_DataInStage+0x9c>
 80034a0:	f8d0 3294 	ldr.w	r3, [r0, #660]	; 0x294
 80034a4:	2b02      	cmp	r3, #2
 80034a6:	d13c      	bne.n	8003522 <USBD_LL_DataInStage+0x8e>
 80034a8:	e9d0 6308 	ldrd	r6, r3, [r0, #32]
 80034ac:	429e      	cmp	r6, r3
 80034ae:	d914      	bls.n	80034da <USBD_LL_DataInStage+0x46>
 80034b0:	1af6      	subs	r6, r6, r3
 80034b2:	4639      	mov	r1, r7
 80034b4:	6206      	str	r6, [r0, #32]
 80034b6:	b2b2      	uxth	r2, r6
 80034b8:	f000 fab8 	bl	8003a2c <USBD_CtlContinueSendData>
 80034bc:	462b      	mov	r3, r5
 80034be:	462a      	mov	r2, r5
 80034c0:	4629      	mov	r1, r5
 80034c2:	4620      	mov	r0, r4
 80034c4:	f000 fce6 	bl	8003e94 <USBD_LL_PrepareReceive>
 80034c8:	f894 32a0 	ldrb.w	r3, [r4, #672]	; 0x2a0
 80034cc:	2b01      	cmp	r3, #1
 80034ce:	d102      	bne.n	80034d6 <USBD_LL_DataInStage+0x42>
 80034d0:	2300      	movs	r3, #0
 80034d2:	f884 32a0 	strb.w	r3, [r4, #672]	; 0x2a0
 80034d6:	4628      	mov	r0, r5
 80034d8:	bdf8      	pop	{r3, r4, r5, r6, r7, pc}
 80034da:	69c2      	ldr	r2, [r0, #28]
 80034dc:	fbb2 f6f3 	udiv	r6, r2, r3
 80034e0:	fb03 2616 	mls	r6, r3, r6, r2
 80034e4:	b95e      	cbnz	r6, 80034fe <USBD_LL_DataInStage+0x6a>
 80034e6:	4293      	cmp	r3, r2
 80034e8:	d809      	bhi.n	80034fe <USBD_LL_DataInStage+0x6a>
 80034ea:	f8d0 3298 	ldr.w	r3, [r0, #664]	; 0x298
 80034ee:	429a      	cmp	r2, r3
 80034f0:	d205      	bcs.n	80034fe <USBD_LL_DataInStage+0x6a>
 80034f2:	460a      	mov	r2, r1
 80034f4:	f000 fa9a 	bl	8003a2c <USBD_CtlContinueSendData>
 80034f8:	f8c4 5298 	str.w	r5, [r4, #664]	; 0x298
 80034fc:	e7de      	b.n	80034bc <USBD_LL_DataInStage+0x28>
 80034fe:	f8d4 32b4 	ldr.w	r3, [r4, #692]	; 0x2b4
 8003502:	68db      	ldr	r3, [r3, #12]
 8003504:	b12b      	cbz	r3, 8003512 <USBD_LL_DataInStage+0x7e>
 8003506:	f894 229c 	ldrb.w	r2, [r4, #668]	; 0x29c
 800350a:	2a03      	cmp	r2, #3
 800350c:	d101      	bne.n	8003512 <USBD_LL_DataInStage+0x7e>
 800350e:	4620      	mov	r0, r4
 8003510:	4798      	blx	r3
 8003512:	2180      	movs	r1, #128	; 0x80
 8003514:	4620      	mov	r0, r4
 8003516:	f000 fc87 	bl	8003e28 <USBD_LL_StallEP>
 800351a:	4620      	mov	r0, r4
 800351c:	f000 faae 	bl	8003a7c <USBD_CtlReceiveStatus>
 8003520:	e7d2      	b.n	80034c8 <USBD_LL_DataInStage+0x34>
 8003522:	f033 0304 	bics.w	r3, r3, #4
 8003526:	d1cf      	bne.n	80034c8 <USBD_LL_DataInStage+0x34>
 8003528:	2180      	movs	r1, #128	; 0x80
 800352a:	f000 fc7d 	bl	8003e28 <USBD_LL_StallEP>
 800352e:	e7cb      	b.n	80034c8 <USBD_LL_DataInStage+0x34>
 8003530:	f8d0 32b4 	ldr.w	r3, [r0, #692]	; 0x2b4
 8003534:	695b      	ldr	r3, [r3, #20]
 8003536:	b133      	cbz	r3, 8003546 <USBD_LL_DataInStage+0xb2>
 8003538:	f890 229c 	ldrb.w	r2, [r0, #668]	; 0x29c
 800353c:	2a03      	cmp	r2, #3
 800353e:	d102      	bne.n	8003546 <USBD_LL_DataInStage+0xb2>
 8003540:	4798      	blx	r3
 8003542:	2500      	movs	r5, #0
 8003544:	e7c7      	b.n	80034d6 <USBD_LL_DataInStage+0x42>
 8003546:	2502      	movs	r5, #2
 8003548:	e7c5      	b.n	80034d6 <USBD_LL_DataInStage+0x42>

0800354a <USBD_LL_Reset>:
 800354a:	2200      	movs	r2, #0
 800354c:	b570      	push	{r4, r5, r6, lr}
 800354e:	4604      	mov	r4, r0
 8003550:	2501      	movs	r5, #1
 8003552:	2640      	movs	r6, #64	; 0x40
 8003554:	4611      	mov	r1, r2
 8003556:	2340      	movs	r3, #64	; 0x40
 8003558:	f000 fc51 	bl	8003dfe <USBD_LL_OpenEP>
 800355c:	4633      	mov	r3, r6
 800355e:	2180      	movs	r1, #128	; 0x80
 8003560:	2200      	movs	r2, #0
 8003562:	4620      	mov	r0, r4
 8003564:	f8c4 5158 	str.w	r5, [r4, #344]	; 0x158
 8003568:	f8c4 6164 	str.w	r6, [r4, #356]	; 0x164
 800356c:	f000 fc47 	bl	8003dfe <USBD_LL_OpenEP>
 8003570:	2100      	movs	r1, #0
 8003572:	f8d4 32b8 	ldr.w	r3, [r4, #696]	; 0x2b8
 8003576:	61a5      	str	r5, [r4, #24]
 8003578:	6266      	str	r6, [r4, #36]	; 0x24
 800357a:	f884 529c 	strb.w	r5, [r4, #668]	; 0x29c
 800357e:	f8c4 1294 	str.w	r1, [r4, #660]	; 0x294
 8003582:	6061      	str	r1, [r4, #4]
 8003584:	f8c4 12a4 	str.w	r1, [r4, #676]	; 0x2a4
 8003588:	b123      	cbz	r3, 8003594 <USBD_LL_Reset+0x4a>
 800358a:	f8d4 32b4 	ldr.w	r3, [r4, #692]	; 0x2b4
 800358e:	4620      	mov	r0, r4
 8003590:	685b      	ldr	r3, [r3, #4]
 8003592:	4798      	blx	r3
 8003594:	2000      	movs	r0, #0
 8003596:	bd70      	pop	{r4, r5, r6, pc}

08003598 <USBD_LL_SetSpeed>:
 8003598:	7401      	strb	r1, [r0, #16]
 800359a:	2000      	movs	r0, #0
 800359c:	4770      	bx	lr

0800359e <USBD_LL_Suspend>:
 800359e:	f890 329c 	ldrb.w	r3, [r0, #668]	; 0x29c
 80035a2:	f880 329d 	strb.w	r3, [r0, #669]	; 0x29d
 80035a6:	2304      	movs	r3, #4
 80035a8:	f880 329c 	strb.w	r3, [r0, #668]	; 0x29c
 80035ac:	2000      	movs	r0, #0
 80035ae:	4770      	bx	lr

080035b0 <USBD_LL_Resume>:
 80035b0:	f890 329c 	ldrb.w	r3, [r0, #668]	; 0x29c
 80035b4:	2b04      	cmp	r3, #4
 80035b6:	bf04      	itt	eq
 80035b8:	f890 329d 	ldrbeq.w	r3, [r0, #669]	; 0x29d
 80035bc:	f880 329c 	strbeq.w	r3, [r0, #668]	; 0x29c
 80035c0:	2000      	movs	r0, #0
 80035c2:	4770      	bx	lr

080035c4 <USBD_LL_SOF>:
 80035c4:	b508      	push	{r3, lr}
 80035c6:	f890 229c 	ldrb.w	r2, [r0, #668]	; 0x29c
 80035ca:	2a03      	cmp	r2, #3
 80035cc:	d104      	bne.n	80035d8 <USBD_LL_SOF+0x14>
 80035ce:	f8d0 32b4 	ldr.w	r3, [r0, #692]	; 0x2b4
 80035d2:	69db      	ldr	r3, [r3, #28]
 80035d4:	b103      	cbz	r3, 80035d8 <USBD_LL_SOF+0x14>
 80035d6:	4798      	blx	r3
 80035d8:	2000      	movs	r0, #0
 80035da:	bd08      	pop	{r3, pc}

080035dc <USBD_CtlError.constprop.0>:
 80035dc:	b510      	push	{r4, lr}
 80035de:	4604      	mov	r4, r0
 80035e0:	2180      	movs	r1, #128	; 0x80
 80035e2:	f000 fc21 	bl	8003e28 <USBD_LL_StallEP>
 80035e6:	4620      	mov	r0, r4
 80035e8:	e8bd 4010 	ldmia.w	sp!, {r4, lr}
 80035ec:	2100      	movs	r1, #0
 80035ee:	f000 bc1b 	b.w	8003e28 <USBD_LL_StallEP>
	...

080035f4 <USBD_StdDevReq>:
 80035f4:	b537      	push	{r0, r1, r2, r4, r5, lr}
 80035f6:	780b      	ldrb	r3, [r1, #0]
 80035f8:	4604      	mov	r4, r0
 80035fa:	f003 0360 	and.w	r3, r3, #96	; 0x60
 80035fe:	2b20      	cmp	r3, #32
 8003600:	460d      	mov	r5, r1
 8003602:	d012      	beq.n	800362a <USBD_StdDevReq+0x36>
 8003604:	2b40      	cmp	r3, #64	; 0x40
 8003606:	d010      	beq.n	800362a <USBD_StdDevReq+0x36>
 8003608:	2b00      	cmp	r3, #0
 800360a:	d151      	bne.n	80036b0 <USBD_StdDevReq+0xbc>
 800360c:	784b      	ldrb	r3, [r1, #1]
 800360e:	2b09      	cmp	r3, #9
 8003610:	d84e      	bhi.n	80036b0 <USBD_StdDevReq+0xbc>
 8003612:	e8df f013 	tbh	[pc, r3, lsl #1]
 8003616:	00ee      	.short	0x00ee
 8003618:	004d0109 	.word	0x004d0109
 800361c:	004d0102 	.word	0x004d0102
 8003620:	00130087 	.word	0x00130087
 8003624:	00d6004d 	.word	0x00d6004d
 8003628:	00a3      	.short	0x00a3
 800362a:	f8d4 32b4 	ldr.w	r3, [r4, #692]	; 0x2b4
 800362e:	4629      	mov	r1, r5
 8003630:	4620      	mov	r0, r4
 8003632:	689b      	ldr	r3, [r3, #8]
 8003634:	4798      	blx	r3
 8003636:	2000      	movs	r0, #0
 8003638:	b003      	add	sp, #12
 800363a:	bd30      	pop	{r4, r5, pc}
 800363c:	2300      	movs	r3, #0
 800363e:	f8ad 3006 	strh.w	r3, [sp, #6]
 8003642:	884b      	ldrh	r3, [r1, #2]
 8003644:	0a1a      	lsrs	r2, r3, #8
 8003646:	3a01      	subs	r2, #1
 8003648:	2a06      	cmp	r2, #6
 800364a:	d831      	bhi.n	80036b0 <USBD_StdDevReq+0xbc>
 800364c:	e8df f002 	tbb	[pc, r2]
 8003650:	30231604 	.word	0x30231604
 8003654:	4830      	.short	0x4830
 8003656:	52          	.byte	0x52
 8003657:	00          	.byte	0x00
 8003658:	f8d0 32b0 	ldr.w	r3, [r0, #688]	; 0x2b0
 800365c:	681b      	ldr	r3, [r3, #0]
 800365e:	7c20      	ldrb	r0, [r4, #16]
 8003660:	f10d 0106 	add.w	r1, sp, #6
 8003664:	4798      	blx	r3
 8003666:	f8bd 2006 	ldrh.w	r2, [sp, #6]
 800366a:	88eb      	ldrh	r3, [r5, #6]
 800366c:	2a00      	cmp	r2, #0
 800366e:	d055      	beq.n	800371c <USBD_StdDevReq+0x128>
 8003670:	2b00      	cmp	r3, #0
 8003672:	d14a      	bne.n	800370a <USBD_StdDevReq+0x116>
 8003674:	4620      	mov	r0, r4
 8003676:	f000 f9f6 	bl	8003a66 <USBD_CtlSendStatus>
 800367a:	e7dc      	b.n	8003636 <USBD_StdDevReq+0x42>
 800367c:	7c02      	ldrb	r2, [r0, #16]
 800367e:	f8d0 32b4 	ldr.w	r3, [r0, #692]	; 0x2b4
 8003682:	b932      	cbnz	r2, 8003692 <USBD_StdDevReq+0x9e>
 8003684:	6a9b      	ldr	r3, [r3, #40]	; 0x28
 8003686:	f10d 0006 	add.w	r0, sp, #6
 800368a:	4798      	blx	r3
 800368c:	2302      	movs	r3, #2
 800368e:	7043      	strb	r3, [r0, #1]
 8003690:	e7e9      	b.n	8003666 <USBD_StdDevReq+0x72>
 8003692:	6adb      	ldr	r3, [r3, #44]	; 0x2c
 8003694:	e7f7      	b.n	8003686 <USBD_StdDevReq+0x92>
 8003696:	b2db      	uxtb	r3, r3
 8003698:	2b05      	cmp	r3, #5
 800369a:	d809      	bhi.n	80036b0 <USBD_StdDevReq+0xbc>
 800369c:	e8df f003 	tbb	[pc, r3]
 80036a0:	14100c03 	.word	0x14100c03
 80036a4:	1c18      	.short	0x1c18
 80036a6:	f8d0 32b0 	ldr.w	r3, [r0, #688]	; 0x2b0
 80036aa:	685b      	ldr	r3, [r3, #4]
 80036ac:	2b00      	cmp	r3, #0
 80036ae:	d1d6      	bne.n	800365e <USBD_StdDevReq+0x6a>
 80036b0:	4620      	mov	r0, r4
 80036b2:	f7ff ff93 	bl	80035dc <USBD_CtlError.constprop.0>
 80036b6:	e7be      	b.n	8003636 <USBD_StdDevReq+0x42>
 80036b8:	f8d0 32b0 	ldr.w	r3, [r0, #688]	; 0x2b0
 80036bc:	689b      	ldr	r3, [r3, #8]
 80036be:	e7f5      	b.n	80036ac <USBD_StdDevReq+0xb8>
 80036c0:	f8d0 32b0 	ldr.w	r3, [r0, #688]	; 0x2b0
 80036c4:	68db      	ldr	r3, [r3, #12]
 80036c6:	e7f1      	b.n	80036ac <USBD_StdDevReq+0xb8>
 80036c8:	f8d0 32b0 	ldr.w	r3, [r0, #688]	; 0x2b0
 80036cc:	691b      	ldr	r3, [r3, #16]
 80036ce:	e7ed      	b.n	80036ac <USBD_StdDevReq+0xb8>
 80036d0:	f8d0 32b0 	ldr.w	r3, [r0, #688]	; 0x2b0
 80036d4:	695b      	ldr	r3, [r3, #20]
 80036d6:	e7e9      	b.n	80036ac <USBD_StdDevReq+0xb8>
 80036d8:	f8d0 32b0 	ldr.w	r3, [r0, #688]	; 0x2b0
 80036dc:	699b      	ldr	r3, [r3, #24]
 80036de:	e7e5      	b.n	80036ac <USBD_StdDevReq+0xb8>
 80036e0:	7c03      	ldrb	r3, [r0, #16]
 80036e2:	2b00      	cmp	r3, #0
 80036e4:	d1e4      	bne.n	80036b0 <USBD_StdDevReq+0xbc>
 80036e6:	f8d0 32b4 	ldr.w	r3, [r0, #692]	; 0x2b4
 80036ea:	f10d 0006 	add.w	r0, sp, #6
 80036ee:	6b5b      	ldr	r3, [r3, #52]	; 0x34
 80036f0:	4798      	blx	r3
 80036f2:	e7b8      	b.n	8003666 <USBD_StdDevReq+0x72>
 80036f4:	7c03      	ldrb	r3, [r0, #16]
 80036f6:	2b00      	cmp	r3, #0
 80036f8:	d1da      	bne.n	80036b0 <USBD_StdDevReq+0xbc>
 80036fa:	f8d0 32b4 	ldr.w	r3, [r0, #692]	; 0x2b4
 80036fe:	f10d 0006 	add.w	r0, sp, #6
 8003702:	6b1b      	ldr	r3, [r3, #48]	; 0x30
 8003704:	4798      	blx	r3
 8003706:	2307      	movs	r3, #7
 8003708:	e7c1      	b.n	800368e <USBD_StdDevReq+0x9a>
 800370a:	429a      	cmp	r2, r3
 800370c:	bf28      	it	cs
 800370e:	461a      	movcs	r2, r3
 8003710:	4601      	mov	r1, r0
 8003712:	4620      	mov	r0, r4
 8003714:	f8ad 2006 	strh.w	r2, [sp, #6]
 8003718:	f000 f97b 	bl	8003a12 <USBD_CtlSendData>
 800371c:	88eb      	ldrh	r3, [r5, #6]
 800371e:	2b00      	cmp	r3, #0
 8003720:	d189      	bne.n	8003636 <USBD_StdDevReq+0x42>
 8003722:	e7a7      	b.n	8003674 <USBD_StdDevReq+0x80>
 8003724:	888b      	ldrh	r3, [r1, #4]
 8003726:	2b00      	cmp	r3, #0
 8003728:	d1c2      	bne.n	80036b0 <USBD_StdDevReq+0xbc>
 800372a:	88cb      	ldrh	r3, [r1, #6]
 800372c:	2b00      	cmp	r3, #0
 800372e:	d1bf      	bne.n	80036b0 <USBD_StdDevReq+0xbc>
 8003730:	884d      	ldrh	r5, [r1, #2]
 8003732:	2d7f      	cmp	r5, #127	; 0x7f
 8003734:	d8bc      	bhi.n	80036b0 <USBD_StdDevReq+0xbc>
 8003736:	f890 329c 	ldrb.w	r3, [r0, #668]	; 0x29c
 800373a:	2b03      	cmp	r3, #3
 800373c:	d0b8      	beq.n	80036b0 <USBD_StdDevReq+0xbc>
 800373e:	b2e9      	uxtb	r1, r5
 8003740:	f880 129e 	strb.w	r1, [r0, #670]	; 0x29e
 8003744:	f000 fb94 	bl	8003e70 <USBD_LL_SetUSBAddress>
 8003748:	4620      	mov	r0, r4
 800374a:	f000 f98c 	bl	8003a66 <USBD_CtlSendStatus>
 800374e:	b11d      	cbz	r5, 8003758 <USBD_StdDevReq+0x164>
 8003750:	2302      	movs	r3, #2
 8003752:	f884 329c 	strb.w	r3, [r4, #668]	; 0x29c
 8003756:	e76e      	b.n	8003636 <USBD_StdDevReq+0x42>
 8003758:	2301      	movs	r3, #1
 800375a:	e7fa      	b.n	8003752 <USBD_StdDevReq+0x15e>
 800375c:	7889      	ldrb	r1, [r1, #2]
 800375e:	4d38      	ldr	r5, [pc, #224]	; (8003840 <USBD_StdDevReq+0x24c>)
 8003760:	2901      	cmp	r1, #1
 8003762:	7029      	strb	r1, [r5, #0]
 8003764:	d8a4      	bhi.n	80036b0 <USBD_StdDevReq+0xbc>
 8003766:	f890 329c 	ldrb.w	r3, [r0, #668]	; 0x29c
 800376a:	2b02      	cmp	r3, #2
 800376c:	d008      	beq.n	8003780 <USBD_StdDevReq+0x18c>
 800376e:	2b03      	cmp	r3, #3
 8003770:	d015      	beq.n	800379e <USBD_StdDevReq+0x1aa>
 8003772:	f7ff ff33 	bl	80035dc <USBD_CtlError.constprop.0>
 8003776:	4620      	mov	r0, r4
 8003778:	7829      	ldrb	r1, [r5, #0]
 800377a:	f7ff fe1d 	bl	80033b8 <USBD_ClrClassConfig>
 800377e:	e75a      	b.n	8003636 <USBD_StdDevReq+0x42>
 8003780:	2900      	cmp	r1, #0
 8003782:	f43f af77 	beq.w	8003674 <USBD_StdDevReq+0x80>
 8003786:	2101      	movs	r1, #1
 8003788:	2303      	movs	r3, #3
 800378a:	6041      	str	r1, [r0, #4]
 800378c:	f880 329c 	strb.w	r3, [r0, #668]	; 0x29c
 8003790:	4620      	mov	r0, r4
 8003792:	f7ff fe04 	bl	800339e <USBD_SetClassConfig>
 8003796:	2802      	cmp	r0, #2
 8003798:	f47f af6c 	bne.w	8003674 <USBD_StdDevReq+0x80>
 800379c:	e788      	b.n	80036b0 <USBD_StdDevReq+0xbc>
 800379e:	b931      	cbnz	r1, 80037ae <USBD_StdDevReq+0x1ba>
 80037a0:	2302      	movs	r3, #2
 80037a2:	6041      	str	r1, [r0, #4]
 80037a4:	f880 329c 	strb.w	r3, [r0, #668]	; 0x29c
 80037a8:	f7ff fe06 	bl	80033b8 <USBD_ClrClassConfig>
 80037ac:	e762      	b.n	8003674 <USBD_StdDevReq+0x80>
 80037ae:	6841      	ldr	r1, [r0, #4]
 80037b0:	2901      	cmp	r1, #1
 80037b2:	f43f af5f 	beq.w	8003674 <USBD_StdDevReq+0x80>
 80037b6:	b2c9      	uxtb	r1, r1
 80037b8:	f7ff fdfe 	bl	80033b8 <USBD_ClrClassConfig>
 80037bc:	7829      	ldrb	r1, [r5, #0]
 80037be:	6061      	str	r1, [r4, #4]
 80037c0:	e7e6      	b.n	8003790 <USBD_StdDevReq+0x19c>
 80037c2:	88ca      	ldrh	r2, [r1, #6]
 80037c4:	2a01      	cmp	r2, #1
 80037c6:	f47f af73 	bne.w	80036b0 <USBD_StdDevReq+0xbc>
 80037ca:	f890 329c 	ldrb.w	r3, [r0, #668]	; 0x29c
 80037ce:	2b02      	cmp	r3, #2
 80037d0:	d80a      	bhi.n	80037e8 <USBD_StdDevReq+0x1f4>
 80037d2:	2b00      	cmp	r3, #0
 80037d4:	f43f af6c 	beq.w	80036b0 <USBD_StdDevReq+0xbc>
 80037d8:	4601      	mov	r1, r0
 80037da:	2300      	movs	r3, #0
 80037dc:	f841 3f08 	str.w	r3, [r1, #8]!
 80037e0:	4620      	mov	r0, r4
 80037e2:	f000 f916 	bl	8003a12 <USBD_CtlSendData>
 80037e6:	e726      	b.n	8003636 <USBD_StdDevReq+0x42>
 80037e8:	2b03      	cmp	r3, #3
 80037ea:	f47f af61 	bne.w	80036b0 <USBD_StdDevReq+0xbc>
 80037ee:	1d01      	adds	r1, r0, #4
 80037f0:	e7f6      	b.n	80037e0 <USBD_StdDevReq+0x1ec>
 80037f2:	f890 329c 	ldrb.w	r3, [r0, #668]	; 0x29c
 80037f6:	3b01      	subs	r3, #1
 80037f8:	2b02      	cmp	r3, #2
 80037fa:	f63f af59 	bhi.w	80036b0 <USBD_StdDevReq+0xbc>
 80037fe:	88ca      	ldrh	r2, [r1, #6]
 8003800:	2a02      	cmp	r2, #2
 8003802:	f47f af55 	bne.w	80036b0 <USBD_StdDevReq+0xbc>
 8003806:	f8d0 32a4 	ldr.w	r3, [r0, #676]	; 0x2a4
 800380a:	4601      	mov	r1, r0
 800380c:	2b00      	cmp	r3, #0
 800380e:	bf14      	ite	ne
 8003810:	2303      	movne	r3, #3
 8003812:	2301      	moveq	r3, #1
 8003814:	f841 3f0c 	str.w	r3, [r1, #12]!
 8003818:	e7e2      	b.n	80037e0 <USBD_StdDevReq+0x1ec>
 800381a:	884b      	ldrh	r3, [r1, #2]
 800381c:	2b01      	cmp	r3, #1
 800381e:	f47f af0a 	bne.w	8003636 <USBD_StdDevReq+0x42>
 8003822:	f8c4 32a4 	str.w	r3, [r4, #676]	; 0x2a4
 8003826:	e725      	b.n	8003674 <USBD_StdDevReq+0x80>
 8003828:	f890 329c 	ldrb.w	r3, [r0, #668]	; 0x29c
 800382c:	3b01      	subs	r3, #1
 800382e:	2b02      	cmp	r3, #2
 8003830:	f63f af3e 	bhi.w	80036b0 <USBD_StdDevReq+0xbc>
 8003834:	884b      	ldrh	r3, [r1, #2]
 8003836:	2b01      	cmp	r3, #1
 8003838:	f47f aefd 	bne.w	8003636 <USBD_StdDevReq+0x42>
 800383c:	2300      	movs	r3, #0
 800383e:	e7f0      	b.n	8003822 <USBD_StdDevReq+0x22e>
 8003840:	20000b58 	.word	0x20000b58

08003844 <USBD_StdItfReq>:
 8003844:	b538      	push	{r3, r4, r5, lr}
 8003846:	780b      	ldrb	r3, [r1, #0]
 8003848:	4604      	mov	r4, r0
 800384a:	f003 0260 	and.w	r2, r3, #96	; 0x60
 800384e:	2a40      	cmp	r2, #64	; 0x40
 8003850:	460d      	mov	r5, r1
 8003852:	d001      	beq.n	8003858 <USBD_StdItfReq+0x14>
 8003854:	065b      	lsls	r3, r3, #25
 8003856:	d415      	bmi.n	8003884 <USBD_StdItfReq+0x40>
 8003858:	f894 329c 	ldrb.w	r3, [r4, #668]	; 0x29c
 800385c:	3b01      	subs	r3, #1
 800385e:	2b02      	cmp	r3, #2
 8003860:	d810      	bhi.n	8003884 <USBD_StdItfReq+0x40>
 8003862:	792b      	ldrb	r3, [r5, #4]
 8003864:	2b01      	cmp	r3, #1
 8003866:	d80d      	bhi.n	8003884 <USBD_StdItfReq+0x40>
 8003868:	f8d4 32b4 	ldr.w	r3, [r4, #692]	; 0x2b4
 800386c:	4629      	mov	r1, r5
 800386e:	689b      	ldr	r3, [r3, #8]
 8003870:	4620      	mov	r0, r4
 8003872:	4798      	blx	r3
 8003874:	88eb      	ldrh	r3, [r5, #6]
 8003876:	b91b      	cbnz	r3, 8003880 <USBD_StdItfReq+0x3c>
 8003878:	b910      	cbnz	r0, 8003880 <USBD_StdItfReq+0x3c>
 800387a:	4620      	mov	r0, r4
 800387c:	f000 f8f3 	bl	8003a66 <USBD_CtlSendStatus>
 8003880:	2000      	movs	r0, #0
 8003882:	bd38      	pop	{r3, r4, r5, pc}
 8003884:	4620      	mov	r0, r4
 8003886:	f7ff fea9 	bl	80035dc <USBD_CtlError.constprop.0>
 800388a:	e7f9      	b.n	8003880 <USBD_StdItfReq+0x3c>

0800388c <USBD_StdEPReq>:
 800388c:	b538      	push	{r3, r4, r5, lr}
 800388e:	780a      	ldrb	r2, [r1, #0]
 8003890:	4604      	mov	r4, r0
 8003892:	f002 0260 	and.w	r2, r2, #96	; 0x60
 8003896:	2a20      	cmp	r2, #32
 8003898:	460b      	mov	r3, r1
 800389a:	888d      	ldrh	r5, [r1, #4]
 800389c:	d02c      	beq.n	80038f8 <USBD_StdEPReq+0x6c>
 800389e:	2a40      	cmp	r2, #64	; 0x40
 80038a0:	d02a      	beq.n	80038f8 <USBD_StdEPReq+0x6c>
 80038a2:	bbba      	cbnz	r2, 8003914 <USBD_StdEPReq+0x88>
 80038a4:	785a      	ldrb	r2, [r3, #1]
 80038a6:	b2e9      	uxtb	r1, r5
 80038a8:	2a01      	cmp	r2, #1
 80038aa:	d043      	beq.n	8003934 <USBD_StdEPReq+0xa8>
 80038ac:	2a03      	cmp	r2, #3
 80038ae:	d02b      	beq.n	8003908 <USBD_StdEPReq+0x7c>
 80038b0:	bb82      	cbnz	r2, 8003914 <USBD_StdEPReq+0x88>
 80038b2:	f890 329c 	ldrb.w	r3, [r0, #668]	; 0x29c
 80038b6:	2b02      	cmp	r3, #2
 80038b8:	d053      	beq.n	8003962 <USBD_StdEPReq+0xd6>
 80038ba:	2b03      	cmp	r3, #3
 80038bc:	d12a      	bne.n	8003914 <USBD_StdEPReq+0x88>
 80038be:	2214      	movs	r2, #20
 80038c0:	f001 030f 	and.w	r3, r1, #15
 80038c4:	f015 0f80 	tst.w	r5, #128	; 0x80
 80038c8:	fb02 0303 	mla	r3, r2, r3, r0
 80038cc:	d05a      	beq.n	8003984 <USBD_StdEPReq+0xf8>
 80038ce:	699b      	ldr	r3, [r3, #24]
 80038d0:	b303      	cbz	r3, 8003914 <USBD_StdEPReq+0x88>
 80038d2:	2514      	movs	r5, #20
 80038d4:	f001 037f 	and.w	r3, r1, #127	; 0x7f
 80038d8:	fb03 5505 	mla	r5, r3, r5, r5
 80038dc:	4405      	add	r5, r0
 80038de:	f011 007f 	ands.w	r0, r1, #127	; 0x7f
 80038e2:	d005      	beq.n	80038f0 <USBD_StdEPReq+0x64>
 80038e4:	4620      	mov	r0, r4
 80038e6:	f000 fab1 	bl	8003e4c <USBD_LL_IsStallEP>
 80038ea:	3800      	subs	r0, #0
 80038ec:	bf18      	it	ne
 80038ee:	2001      	movne	r0, #1
 80038f0:	2202      	movs	r2, #2
 80038f2:	4629      	mov	r1, r5
 80038f4:	6028      	str	r0, [r5, #0]
 80038f6:	e041      	b.n	800397c <USBD_StdEPReq+0xf0>
 80038f8:	f8d4 22b4 	ldr.w	r2, [r4, #692]	; 0x2b4
 80038fc:	4619      	mov	r1, r3
 80038fe:	4620      	mov	r0, r4
 8003900:	6892      	ldr	r2, [r2, #8]
 8003902:	4790      	blx	r2
 8003904:	2000      	movs	r0, #0
 8003906:	bd38      	pop	{r3, r4, r5, pc}
 8003908:	f890 229c 	ldrb.w	r2, [r0, #668]	; 0x29c
 800390c:	2a02      	cmp	r2, #2
 800390e:	d01f      	beq.n	8003950 <USBD_StdEPReq+0xc4>
 8003910:	2a03      	cmp	r2, #3
 8003912:	d003      	beq.n	800391c <USBD_StdEPReq+0x90>
 8003914:	4620      	mov	r0, r4
 8003916:	f7ff fe61 	bl	80035dc <USBD_CtlError.constprop.0>
 800391a:	e7f3      	b.n	8003904 <USBD_StdEPReq+0x78>
 800391c:	885a      	ldrh	r2, [r3, #2]
 800391e:	b92a      	cbnz	r2, 800392c <USBD_StdEPReq+0xa0>
 8003920:	064a      	lsls	r2, r1, #25
 8003922:	d003      	beq.n	800392c <USBD_StdEPReq+0xa0>
 8003924:	88db      	ldrh	r3, [r3, #6]
 8003926:	b90b      	cbnz	r3, 800392c <USBD_StdEPReq+0xa0>
 8003928:	f000 fa7e 	bl	8003e28 <USBD_LL_StallEP>
 800392c:	4620      	mov	r0, r4
 800392e:	f000 f89a 	bl	8003a66 <USBD_CtlSendStatus>
 8003932:	e7e7      	b.n	8003904 <USBD_StdEPReq+0x78>
 8003934:	f890 229c 	ldrb.w	r2, [r0, #668]	; 0x29c
 8003938:	2a02      	cmp	r2, #2
 800393a:	d009      	beq.n	8003950 <USBD_StdEPReq+0xc4>
 800393c:	2a03      	cmp	r2, #3
 800393e:	d1e9      	bne.n	8003914 <USBD_StdEPReq+0x88>
 8003940:	885b      	ldrh	r3, [r3, #2]
 8003942:	2b00      	cmp	r3, #0
 8003944:	d1de      	bne.n	8003904 <USBD_StdEPReq+0x78>
 8003946:	064d      	lsls	r5, r1, #25
 8003948:	d0f0      	beq.n	800392c <USBD_StdEPReq+0xa0>
 800394a:	f000 fa76 	bl	8003e3a <USBD_LL_ClearStallEP>
 800394e:	e7ed      	b.n	800392c <USBD_StdEPReq+0xa0>
 8003950:	064b      	lsls	r3, r1, #25
 8003952:	d0df      	beq.n	8003914 <USBD_StdEPReq+0x88>
 8003954:	f000 fa68 	bl	8003e28 <USBD_LL_StallEP>
 8003958:	2180      	movs	r1, #128	; 0x80
 800395a:	4620      	mov	r0, r4
 800395c:	f000 fa64 	bl	8003e28 <USBD_LL_StallEP>
 8003960:	e7d0      	b.n	8003904 <USBD_StdEPReq+0x78>
 8003962:	064a      	lsls	r2, r1, #25
 8003964:	d1d6      	bne.n	8003914 <USBD_StdEPReq+0x88>
 8003966:	062b      	lsls	r3, r5, #24
 8003968:	f04f 0300 	mov.w	r3, #0
 800396c:	f04f 0202 	mov.w	r2, #2
 8003970:	bf4c      	ite	mi
 8003972:	f100 0114 	addmi.w	r1, r0, #20
 8003976:	f500 71aa 	addpl.w	r1, r0, #340	; 0x154
 800397a:	600b      	str	r3, [r1, #0]
 800397c:	4620      	mov	r0, r4
 800397e:	f000 f848 	bl	8003a12 <USBD_CtlSendData>
 8003982:	e7bf      	b.n	8003904 <USBD_StdEPReq+0x78>
 8003984:	f8d3 3158 	ldr.w	r3, [r3, #344]	; 0x158
 8003988:	2b00      	cmp	r3, #0
 800398a:	d0c3      	beq.n	8003914 <USBD_StdEPReq+0x88>
 800398c:	2314      	movs	r3, #20
 800398e:	f001 057f 	and.w	r5, r1, #127	; 0x7f
 8003992:	fb03 0505 	mla	r5, r3, r5, r0
 8003996:	f505 75aa 	add.w	r5, r5, #340	; 0x154
 800399a:	e7a0      	b.n	80038de <USBD_StdEPReq+0x52>

0800399c <USBD_ParseSetupRequest>:
 800399c:	780b      	ldrb	r3, [r1, #0]
 800399e:	7003      	strb	r3, [r0, #0]
 80039a0:	784b      	ldrb	r3, [r1, #1]
 80039a2:	7043      	strb	r3, [r0, #1]
 80039a4:	78ca      	ldrb	r2, [r1, #3]
 80039a6:	788b      	ldrb	r3, [r1, #2]
 80039a8:	eb03 2302 	add.w	r3, r3, r2, lsl #8
 80039ac:	8043      	strh	r3, [r0, #2]
 80039ae:	794a      	ldrb	r2, [r1, #5]
 80039b0:	790b      	ldrb	r3, [r1, #4]
 80039b2:	eb03 2302 	add.w	r3, r3, r2, lsl #8
 80039b6:	8083      	strh	r3, [r0, #4]
 80039b8:	79ca      	ldrb	r2, [r1, #7]
 80039ba:	798b      	ldrb	r3, [r1, #6]
 80039bc:	eb03 2302 	add.w	r3, r3, r2, lsl #8
 80039c0:	80c3      	strh	r3, [r0, #6]
 80039c2:	4770      	bx	lr

080039c4 <USBD_CtlError>:
 80039c4:	b510      	push	{r4, lr}
 80039c6:	4604      	mov	r4, r0
 80039c8:	2180      	movs	r1, #128	; 0x80
 80039ca:	f000 fa2d 	bl	8003e28 <USBD_LL_StallEP>
 80039ce:	4620      	mov	r0, r4
 80039d0:	e8bd 4010 	ldmia.w	sp!, {r4, lr}
 80039d4:	2100      	movs	r1, #0
 80039d6:	f000 ba27 	b.w	8003e28 <USBD_LL_StallEP>

080039da <USBD_GetString>:
 80039da:	b530      	push	{r4, r5, lr}
 80039dc:	b188      	cbz	r0, 8003a02 <USBD_GetString+0x28>
 80039de:	2400      	movs	r4, #0
 80039e0:	3801      	subs	r0, #1
 80039e2:	4623      	mov	r3, r4
 80039e4:	3401      	adds	r4, #1
 80039e6:	5d05      	ldrb	r5, [r0, r4]
 80039e8:	2d00      	cmp	r5, #0
 80039ea:	d1fa      	bne.n	80039e2 <USBD_GetString+0x8>
 80039ec:	b2db      	uxtb	r3, r3
 80039ee:	3301      	adds	r3, #1
 80039f0:	005b      	lsls	r3, r3, #1
 80039f2:	8013      	strh	r3, [r2, #0]
 80039f4:	700b      	strb	r3, [r1, #0]
 80039f6:	2303      	movs	r3, #3
 80039f8:	704b      	strb	r3, [r1, #1]
 80039fa:	2302      	movs	r3, #2
 80039fc:	f810 4f01 	ldrb.w	r4, [r0, #1]!
 8003a00:	b904      	cbnz	r4, 8003a04 <USBD_GetString+0x2a>
 8003a02:	bd30      	pop	{r4, r5, pc}
 8003a04:	1c5a      	adds	r2, r3, #1
 8003a06:	54cc      	strb	r4, [r1, r3]
 8003a08:	b2d2      	uxtb	r2, r2
 8003a0a:	3302      	adds	r3, #2
 8003a0c:	b2db      	uxtb	r3, r3
 8003a0e:	548d      	strb	r5, [r1, r2]
 8003a10:	e7f4      	b.n	80039fc <USBD_GetString+0x22>

08003a12 <USBD_CtlSendData>:
 8003a12:	4613      	mov	r3, r2
 8003a14:	2202      	movs	r2, #2
 8003a16:	b510      	push	{r4, lr}
 8003a18:	e9c0 3307 	strd	r3, r3, [r0, #28]
 8003a1c:	f8c0 2294 	str.w	r2, [r0, #660]	; 0x294
 8003a20:	460a      	mov	r2, r1
 8003a22:	2100      	movs	r1, #0
 8003a24:	f000 fa2d 	bl	8003e82 <USBD_LL_Transmit>
 8003a28:	2000      	movs	r0, #0
 8003a2a:	bd10      	pop	{r4, pc}

08003a2c <USBD_CtlContinueSendData>:
 8003a2c:	b508      	push	{r3, lr}
 8003a2e:	4613      	mov	r3, r2
 8003a30:	460a      	mov	r2, r1
 8003a32:	2100      	movs	r1, #0
 8003a34:	f000 fa25 	bl	8003e82 <USBD_LL_Transmit>
 8003a38:	2000      	movs	r0, #0
 8003a3a:	bd08      	pop	{r3, pc}

08003a3c <USBD_CtlPrepareRx>:
 8003a3c:	4613      	mov	r3, r2
 8003a3e:	2203      	movs	r2, #3
 8003a40:	b510      	push	{r4, lr}
 8003a42:	e9c0 3357 	strd	r3, r3, [r0, #348]	; 0x15c
 8003a46:	f8c0 2294 	str.w	r2, [r0, #660]	; 0x294
 8003a4a:	460a      	mov	r2, r1
 8003a4c:	2100      	movs	r1, #0
 8003a4e:	f000 fa21 	bl	8003e94 <USBD_LL_PrepareReceive>
 8003a52:	2000      	movs	r0, #0
 8003a54:	bd10      	pop	{r4, pc}

08003a56 <USBD_CtlContinueRx>:
 8003a56:	b508      	push	{r3, lr}
 8003a58:	4613      	mov	r3, r2
 8003a5a:	460a      	mov	r2, r1
 8003a5c:	2100      	movs	r1, #0
 8003a5e:	f000 fa19 	bl	8003e94 <USBD_LL_PrepareReceive>
 8003a62:	2000      	movs	r0, #0
 8003a64:	bd08      	pop	{r3, pc}

08003a66 <USBD_CtlSendStatus>:
 8003a66:	b508      	push	{r3, lr}
 8003a68:	2304      	movs	r3, #4
 8003a6a:	f8c0 3294 	str.w	r3, [r0, #660]	; 0x294
 8003a6e:	2300      	movs	r3, #0
 8003a70:	461a      	mov	r2, r3
 8003a72:	4619      	mov	r1, r3
 8003a74:	f000 fa05 	bl	8003e82 <USBD_LL_Transmit>
 8003a78:	2000      	movs	r0, #0
 8003a7a:	bd08      	pop	{r3, pc}

08003a7c <USBD_CtlReceiveStatus>:
 8003a7c:	b508      	push	{r3, lr}
 8003a7e:	2305      	movs	r3, #5
 8003a80:	f8c0 3294 	str.w	r3, [r0, #660]	; 0x294
 8003a84:	2300      	movs	r3, #0
 8003a86:	461a      	mov	r2, r3
 8003a88:	4619      	mov	r1, r3
 8003a8a:	f000 fa03 	bl	8003e94 <USBD_LL_PrepareReceive>
 8003a8e:	2000      	movs	r0, #0
 8003a90:	bd08      	pop	{r3, pc}
	...

08003a94 <MX_USB_DEVICE_Init>:
 8003a94:	b508      	push	{r3, lr}
 8003a96:	2200      	movs	r2, #0
 8003a98:	4910      	ldr	r1, [pc, #64]	; (8003adc <MX_USB_DEVICE_Init+0x48>)
 8003a9a:	4811      	ldr	r0, [pc, #68]	; (8003ae0 <MX_USB_DEVICE_Init+0x4c>)
 8003a9c:	f7ff fc42 	bl	8003324 <USBD_Init>
 8003aa0:	b108      	cbz	r0, 8003aa6 <MX_USB_DEVICE_Init+0x12>
 8003aa2:	f7fc fe09 	bl	80006b8 <Error_Handler>
 8003aa6:	490f      	ldr	r1, [pc, #60]	; (8003ae4 <MX_USB_DEVICE_Init+0x50>)
 8003aa8:	480d      	ldr	r0, [pc, #52]	; (8003ae0 <MX_USB_DEVICE_Init+0x4c>)
 8003aaa:	f7ff fc5d 	bl	8003368 <USBD_RegisterClass>
 8003aae:	b108      	cbz	r0, 8003ab4 <MX_USB_DEVICE_Init+0x20>
 8003ab0:	f7fc fe02 	bl	80006b8 <Error_Handler>
 8003ab4:	490c      	ldr	r1, [pc, #48]	; (8003ae8 <MX_USB_DEVICE_Init+0x54>)
 8003ab6:	480a      	ldr	r0, [pc, #40]	; (8003ae0 <MX_USB_DEVICE_Init+0x4c>)
 8003ab8:	f7ff fbee 	bl	8003298 <USBD_CDC_RegisterInterface>
 8003abc:	b108      	cbz	r0, 8003ac2 <MX_USB_DEVICE_Init+0x2e>
 8003abe:	f7fc fdfb 	bl	80006b8 <Error_Handler>
 8003ac2:	4807      	ldr	r0, [pc, #28]	; (8003ae0 <MX_USB_DEVICE_Init+0x4c>)
 8003ac4:	f7ff fc66 	bl	8003394 <USBD_Start>
 8003ac8:	b108      	cbz	r0, 8003ace <MX_USB_DEVICE_Init+0x3a>
 8003aca:	f7fc fdf5 	bl	80006b8 <Error_Handler>
 8003ace:	e8bd 4008 	ldmia.w	sp!, {r3, lr}
 8003ad2:	f44f 707a 	mov.w	r0, #1000	; 0x3e8
 8003ad6:	f7fc bf45 	b.w	8000964 <HAL_Delay>
 8003ada:	bf00      	nop
 8003adc:	20000130 	.word	0x20000130
 8003ae0:	20000b5c 	.word	0x20000b5c
 8003ae4:	20000010 	.word	0x20000010
 8003ae8:	20000120 	.word	0x20000120

08003aec <CDC_DeInit_FS>:
 8003aec:	2000      	movs	r0, #0
 8003aee:	4770      	bx	lr

08003af0 <CDC_Control_FS>:
 8003af0:	2000      	movs	r0, #0
 8003af2:	4770      	bx	lr

08003af4 <CDC_Receive_FS>:
 8003af4:	b510      	push	{r4, lr}
 8003af6:	4c05      	ldr	r4, [pc, #20]	; (8003b0c <CDC_Receive_FS+0x18>)
 8003af8:	4601      	mov	r1, r0
 8003afa:	4620      	mov	r0, r4
 8003afc:	f7ff fbdb 	bl	80032b6 <USBD_CDC_SetRxBuffer>
 8003b00:	4620      	mov	r0, r4
 8003b02:	f7ff fbf7 	bl	80032f4 <USBD_CDC_ReceivePacket>
 8003b06:	2000      	movs	r0, #0
 8003b08:	bd10      	pop	{r4, pc}
 8003b0a:	bf00      	nop
 8003b0c:	20000b5c 	.word	0x20000b5c

08003b10 <CDC_Init_FS>:
 8003b10:	b510      	push	{r4, lr}
 8003b12:	4c06      	ldr	r4, [pc, #24]	; (8003b2c <CDC_Init_FS+0x1c>)
 8003b14:	2200      	movs	r2, #0
 8003b16:	4620      	mov	r0, r4
 8003b18:	4905      	ldr	r1, [pc, #20]	; (8003b30 <CDC_Init_FS+0x20>)
 8003b1a:	f7ff fbc4 	bl	80032a6 <USBD_CDC_SetTxBuffer>
 8003b1e:	4620      	mov	r0, r4
 8003b20:	4904      	ldr	r1, [pc, #16]	; (8003b34 <CDC_Init_FS+0x24>)
 8003b22:	f7ff fbc8 	bl	80032b6 <USBD_CDC_SetRxBuffer>
 8003b26:	2000      	movs	r0, #0
 8003b28:	bd10      	pop	{r4, pc}
 8003b2a:	bf00      	nop
 8003b2c:	20000b5c 	.word	0x20000b5c
 8003b30:	20001220 	.word	0x20001220
 8003b34:	20000e20 	.word	0x20000e20

08003b38 <CDC_Transmit_FS>:
 8003b38:	b510      	push	{r4, lr}
 8003b3a:	4c09      	ldr	r4, [pc, #36]	; (8003b60 <CDC_Transmit_FS+0x28>)
 8003b3c:	460a      	mov	r2, r1
 8003b3e:	f8d4 32b8 	ldr.w	r3, [r4, #696]	; 0x2b8
 8003b42:	f8d3 3214 	ldr.w	r3, [r3, #532]	; 0x214
 8003b46:	b943      	cbnz	r3, 8003b5a <CDC_Transmit_FS+0x22>
 8003b48:	4601      	mov	r1, r0
 8003b4a:	4620      	mov	r0, r4
 8003b4c:	f7ff fbab 	bl	80032a6 <USBD_CDC_SetTxBuffer>
 8003b50:	4620      	mov	r0, r4
 8003b52:	e8bd 4010 	ldmia.w	sp!, {r4, lr}
 8003b56:	f7ff bbb4 	b.w	80032c2 <USBD_CDC_TransmitPacket>
 8003b5a:	2001      	movs	r0, #1
 8003b5c:	bd10      	pop	{r4, pc}
 8003b5e:	bf00      	nop
 8003b60:	20000b5c 	.word	0x20000b5c

08003b64 <USBD_FS_DeviceDescriptor>:
 8003b64:	2312      	movs	r3, #18
 8003b66:	4801      	ldr	r0, [pc, #4]	; (8003b6c <USBD_FS_DeviceDescriptor+0x8>)
 8003b68:	800b      	strh	r3, [r1, #0]
 8003b6a:	4770      	bx	lr
 8003b6c:	2000014c 	.word	0x2000014c

08003b70 <USBD_FS_LangIDStrDescriptor>:
 8003b70:	2304      	movs	r3, #4
 8003b72:	4801      	ldr	r0, [pc, #4]	; (8003b78 <USBD_FS_LangIDStrDescriptor+0x8>)
 8003b74:	800b      	strh	r3, [r1, #0]
 8003b76:	4770      	bx	lr
 8003b78:	20000160 	.word	0x20000160

08003b7c <IntToUnicode>:
 8003b7c:	2300      	movs	r3, #0
 8003b7e:	b570      	push	{r4, r5, r6, lr}
 8003b80:	461e      	mov	r6, r3
 8003b82:	1c4d      	adds	r5, r1, #1
 8003b84:	0f04      	lsrs	r4, r0, #28
 8003b86:	f1b0 4f20 	cmp.w	r0, #2684354560	; 0xa0000000
 8003b8a:	bf34      	ite	cc
 8003b8c:	3430      	addcc	r4, #48	; 0x30
 8003b8e:	3437      	addcs	r4, #55	; 0x37
 8003b90:	f801 4013 	strb.w	r4, [r1, r3, lsl #1]
 8003b94:	f805 6013 	strb.w	r6, [r5, r3, lsl #1]
 8003b98:	3301      	adds	r3, #1
 8003b9a:	b2dc      	uxtb	r4, r3
 8003b9c:	42a2      	cmp	r2, r4
 8003b9e:	ea4f 1000 	mov.w	r0, r0, lsl #4
 8003ba2:	d8ef      	bhi.n	8003b84 <IntToUnicode+0x8>
 8003ba4:	bd70      	pop	{r4, r5, r6, pc}
	...

08003ba8 <USBD_FS_SerialStrDescriptor>:
 8003ba8:	231a      	movs	r3, #26
 8003baa:	b510      	push	{r4, lr}
 8003bac:	800b      	strh	r3, [r1, #0]
 8003bae:	4b0a      	ldr	r3, [pc, #40]	; (8003bd8 <USBD_FS_SerialStrDescriptor+0x30>)
 8003bb0:	f8d3 07e8 	ldr.w	r0, [r3, #2024]	; 0x7e8
 8003bb4:	f8d3 27f0 	ldr.w	r2, [r3, #2032]	; 0x7f0
 8003bb8:	1880      	adds	r0, r0, r2
 8003bba:	d00a      	beq.n	8003bd2 <USBD_FS_SerialStrDescriptor+0x2a>
 8003bbc:	f8d3 47ec 	ldr.w	r4, [r3, #2028]	; 0x7ec
 8003bc0:	4906      	ldr	r1, [pc, #24]	; (8003bdc <USBD_FS_SerialStrDescriptor+0x34>)
 8003bc2:	2208      	movs	r2, #8
 8003bc4:	f7ff ffda 	bl	8003b7c <IntToUnicode>
 8003bc8:	2204      	movs	r2, #4
 8003bca:	4620      	mov	r0, r4
 8003bcc:	3110      	adds	r1, #16
 8003bce:	f7ff ffd5 	bl	8003b7c <IntToUnicode>
 8003bd2:	4803      	ldr	r0, [pc, #12]	; (8003be0 <USBD_FS_SerialStrDescriptor+0x38>)
 8003bd4:	bd10      	pop	{r4, pc}
 8003bd6:	bf00      	nop
 8003bd8:	1ffff000 	.word	0x1ffff000
 8003bdc:	20000166 	.word	0x20000166
 8003be0:	20000164 	.word	0x20000164

08003be4 <USBD_FS_ManufacturerStrDescriptor>:
 8003be4:	b510      	push	{r4, lr}
 8003be6:	4c04      	ldr	r4, [pc, #16]	; (8003bf8 <USBD_FS_ManufacturerStrDescriptor+0x14>)
 8003be8:	460a      	mov	r2, r1
 8003bea:	4804      	ldr	r0, [pc, #16]	; (8003bfc <USBD_FS_ManufacturerStrDescriptor+0x18>)
 8003bec:	4621      	mov	r1, r4
 8003bee:	f7ff fef4 	bl	80039da <USBD_GetString>
 8003bf2:	4620      	mov	r0, r4
 8003bf4:	bd10      	pop	{r4, pc}
 8003bf6:	bf00      	nop
 8003bf8:	20001620 	.word	0x20001620
 8003bfc:	0800520a 	.word	0x0800520a

08003c00 <USBD_FS_ProductStrDescriptor>:
 8003c00:	b510      	push	{r4, lr}
 8003c02:	4c04      	ldr	r4, [pc, #16]	; (8003c14 <USBD_FS_ProductStrDescriptor+0x14>)
 8003c04:	460a      	mov	r2, r1
 8003c06:	4804      	ldr	r0, [pc, #16]	; (8003c18 <USBD_FS_ProductStrDescriptor+0x18>)
 8003c08:	4621      	mov	r1, r4
 8003c0a:	f7ff fee6 	bl	80039da <USBD_GetString>
 8003c0e:	4620      	mov	r0, r4
 8003c10:	bd10      	pop	{r4, pc}
 8003c12:	bf00      	nop
 8003c14:	20001620 	.word	0x20001620
 8003c18:	0800521d 	.word	0x0800521d

08003c1c <USBD_FS_ConfigStrDescriptor>:
 8003c1c:	b510      	push	{r4, lr}
 8003c1e:	4c04      	ldr	r4, [pc, #16]	; (8003c30 <USBD_FS_ConfigStrDescriptor+0x14>)
 8003c20:	460a      	mov	r2, r1
 8003c22:	4804      	ldr	r0, [pc, #16]	; (8003c34 <USBD_FS_ConfigStrDescriptor+0x18>)
 8003c24:	4621      	mov	r1, r4
 8003c26:	f7ff fed8 	bl	80039da <USBD_GetString>
 8003c2a:	4620      	mov	r0, r4
 8003c2c:	bd10      	pop	{r4, pc}
 8003c2e:	bf00      	nop
 8003c30:	20001620 	.word	0x20001620
 8003c34:	08005233 	.word	0x08005233

08003c38 <USBD_FS_InterfaceStrDescriptor>:
 8003c38:	b510      	push	{r4, lr}
 8003c3a:	4c04      	ldr	r4, [pc, #16]	; (8003c4c <USBD_FS_InterfaceStrDescriptor+0x14>)
 8003c3c:	460a      	mov	r2, r1
 8003c3e:	4804      	ldr	r0, [pc, #16]	; (8003c50 <USBD_FS_InterfaceStrDescriptor+0x18>)
 8003c40:	4621      	mov	r1, r4
 8003c42:	f7ff feca 	bl	80039da <USBD_GetString>
 8003c46:	4620      	mov	r0, r4
 8003c48:	bd10      	pop	{r4, pc}
 8003c4a:	bf00      	nop
 8003c4c:	20001620 	.word	0x20001620
 8003c50:	0800523e 	.word	0x0800523e

08003c54 <USBD_Get_USB_Status>:
 8003c54:	2803      	cmp	r0, #3
 8003c56:	bf9a      	itte	ls
 8003c58:	4b01      	ldrls	r3, [pc, #4]	; (8003c60 <USBD_Get_USB_Status+0xc>)
 8003c5a:	5c18      	ldrbls	r0, [r3, r0]
 8003c5c:	2002      	movhi	r0, #2
 8003c5e:	4770      	bx	lr
 8003c60:	0800524c 	.word	0x0800524c

08003c64 <HAL_PCD_MspInit>:
 8003c64:	b570      	push	{r4, r5, r6, lr}
 8003c66:	6802      	ldr	r2, [r0, #0]
 8003c68:	4b1b      	ldr	r3, [pc, #108]	; (8003cd8 <HAL_PCD_MspInit+0x74>)
 8003c6a:	b086      	sub	sp, #24
 8003c6c:	429a      	cmp	r2, r3
 8003c6e:	d131      	bne.n	8003cd4 <HAL_PCD_MspInit+0x70>
 8003c70:	2301      	movs	r3, #1
 8003c72:	2400      	movs	r4, #0
 8003c74:	f44f 5680 	mov.w	r6, #4096	; 0x1000
 8003c78:	2503      	movs	r5, #3
 8003c7a:	4818      	ldr	r0, [pc, #96]	; (8003cdc <HAL_PCD_MspInit+0x78>)
 8003c7c:	a902      	add	r1, sp, #8
 8003c7e:	e9cd 6302 	strd	r6, r3, [sp, #8]
 8003c82:	e9cd 4504 	strd	r4, r5, [sp, #16]
 8003c86:	f7fc fef5 	bl	8000a74 <HAL_GPIO_Init>
 8003c8a:	4622      	mov	r2, r4
 8003c8c:	4631      	mov	r1, r6
 8003c8e:	4813      	ldr	r0, [pc, #76]	; (8003cdc <HAL_PCD_MspInit+0x78>)
 8003c90:	f7fc ffd0 	bl	8000c34 <HAL_GPIO_WritePin>
 8003c94:	2005      	movs	r0, #5
 8003c96:	f7fc fe65 	bl	8000964 <HAL_Delay>
 8003c9a:	f44f 52c0 	mov.w	r2, #6144	; 0x1800
 8003c9e:	2302      	movs	r3, #2
 8003ca0:	480e      	ldr	r0, [pc, #56]	; (8003cdc <HAL_PCD_MspInit+0x78>)
 8003ca2:	a902      	add	r1, sp, #8
 8003ca4:	e9cd 2302 	strd	r2, r3, [sp, #8]
 8003ca8:	e9cd 4504 	strd	r4, r5, [sp, #16]
 8003cac:	f7fc fee2 	bl	8000a74 <HAL_GPIO_Init>
 8003cb0:	4b0b      	ldr	r3, [pc, #44]	; (8003ce0 <HAL_PCD_MspInit+0x7c>)
 8003cb2:	2014      	movs	r0, #20
 8003cb4:	69da      	ldr	r2, [r3, #28]
 8003cb6:	2105      	movs	r1, #5
 8003cb8:	f442 0200 	orr.w	r2, r2, #8388608	; 0x800000
 8003cbc:	61da      	str	r2, [r3, #28]
 8003cbe:	69db      	ldr	r3, [r3, #28]
 8003cc0:	4622      	mov	r2, r4
 8003cc2:	f403 0300 	and.w	r3, r3, #8388608	; 0x800000
 8003cc6:	9301      	str	r3, [sp, #4]
 8003cc8:	9b01      	ldr	r3, [sp, #4]
 8003cca:	f7fc fe6f 	bl	80009ac <HAL_NVIC_SetPriority>
 8003cce:	2014      	movs	r0, #20
 8003cd0:	f7fc fe9c 	bl	8000a0c <HAL_NVIC_EnableIRQ>
 8003cd4:	b006      	add	sp, #24
 8003cd6:	bd70      	pop	{r4, r5, r6, pc}
 8003cd8:	40005c00 	.word	0x40005c00
 8003cdc:	40010800 	.word	0x40010800
 8003ce0:	40021000 	.word	0x40021000

08003ce4 <HAL_PCD_SetupStageCallback>:
 8003ce4:	f500 712c 	add.w	r1, r0, #688	; 0x2b0
 8003ce8:	f8d0 02ec 	ldr.w	r0, [r0, #748]	; 0x2ec
 8003cec:	f7ff bb6b 	b.w	80033c6 <USBD_LL_SetupStage>

08003cf0 <HAL_PCD_DataOutStageCallback>:
 8003cf0:	2328      	movs	r3, #40	; 0x28
 8003cf2:	fb03 0301 	mla	r3, r3, r1, r0
 8003cf6:	f8d0 02ec 	ldr.w	r0, [r0, #748]	; 0x2ec
 8003cfa:	f8d3 217c 	ldr.w	r2, [r3, #380]	; 0x17c
 8003cfe:	f7ff bb8f 	b.w	8003420 <USBD_LL_DataOutStage>

08003d02 <HAL_PCD_DataInStageCallback>:
 8003d02:	2328      	movs	r3, #40	; 0x28
 8003d04:	fb03 0301 	mla	r3, r3, r1, r0
 8003d08:	f8d0 02ec 	ldr.w	r0, [r0, #748]	; 0x2ec
 8003d0c:	6bda      	ldr	r2, [r3, #60]	; 0x3c
 8003d0e:	f7ff bbc1 	b.w	8003494 <USBD_LL_DataInStage>

08003d12 <HAL_PCD_SOFCallback>:
 8003d12:	f8d0 02ec 	ldr.w	r0, [r0, #748]	; 0x2ec
 8003d16:	f7ff bc55 	b.w	80035c4 <USBD_LL_SOF>

08003d1a <HAL_PCD_ResetCallback>:
 8003d1a:	6883      	ldr	r3, [r0, #8]
 8003d1c:	b510      	push	{r4, lr}
 8003d1e:	2b02      	cmp	r3, #2
 8003d20:	4604      	mov	r4, r0
 8003d22:	d001      	beq.n	8003d28 <HAL_PCD_ResetCallback+0xe>
 8003d24:	f7fc fcc8 	bl	80006b8 <Error_Handler>
 8003d28:	f8d4 02ec 	ldr.w	r0, [r4, #748]	; 0x2ec
 8003d2c:	2101      	movs	r1, #1
 8003d2e:	f7ff fc33 	bl	8003598 <USBD_LL_SetSpeed>
 8003d32:	f8d4 02ec 	ldr.w	r0, [r4, #748]	; 0x2ec
 8003d36:	e8bd 4010 	ldmia.w	sp!, {r4, lr}
 8003d3a:	f7ff bc06 	b.w	800354a <USBD_LL_Reset>
	...

08003d40 <HAL_PCD_SuspendCallback>:
 8003d40:	b510      	push	{r4, lr}
 8003d42:	4604      	mov	r4, r0
 8003d44:	f8d0 02ec 	ldr.w	r0, [r0, #748]	; 0x2ec
 8003d48:	f7ff fc29 	bl	800359e <USBD_LL_Suspend>
 8003d4c:	69a3      	ldr	r3, [r4, #24]
 8003d4e:	b123      	cbz	r3, 8003d5a <HAL_PCD_SuspendCallback+0x1a>
 8003d50:	4a02      	ldr	r2, [pc, #8]	; (8003d5c <HAL_PCD_SuspendCallback+0x1c>)
 8003d52:	6913      	ldr	r3, [r2, #16]
 8003d54:	f043 0306 	orr.w	r3, r3, #6
 8003d58:	6113      	str	r3, [r2, #16]
 8003d5a:	bd10      	pop	{r4, pc}
 8003d5c:	e000ed00 	.word	0xe000ed00

08003d60 <HAL_PCD_ResumeCallback>:
 8003d60:	f8d0 02ec 	ldr.w	r0, [r0, #748]	; 0x2ec
 8003d64:	f7ff bc24 	b.w	80035b0 <USBD_LL_Resume>

08003d68 <USBD_LL_Init>:
 8003d68:	2308      	movs	r3, #8
 8003d6a:	b510      	push	{r4, lr}
 8003d6c:	4a1d      	ldr	r2, [pc, #116]	; (8003de4 <USBD_LL_Init+0x7c>)
 8003d6e:	4604      	mov	r4, r0
 8003d70:	481d      	ldr	r0, [pc, #116]	; (8003de8 <USBD_LL_Init+0x80>)
 8003d72:	e9c0 2300 	strd	r2, r3, [r0]
 8003d76:	2302      	movs	r3, #2
 8003d78:	6083      	str	r3, [r0, #8]
 8003d7a:	2300      	movs	r3, #0
 8003d7c:	f8c0 42ec 	str.w	r4, [r0, #748]	; 0x2ec
 8003d80:	f8c4 02c0 	str.w	r0, [r4, #704]	; 0x2c0
 8003d84:	e9c0 3306 	strd	r3, r3, [r0, #24]
 8003d88:	6203      	str	r3, [r0, #32]
 8003d8a:	f7fc ff9a 	bl	8000cc2 <HAL_PCD_Init>
 8003d8e:	b108      	cbz	r0, 8003d94 <USBD_LL_Init+0x2c>
 8003d90:	f7fc fc92 	bl	80006b8 <Error_Handler>
 8003d94:	2200      	movs	r2, #0
 8003d96:	2318      	movs	r3, #24
 8003d98:	4611      	mov	r1, r2
 8003d9a:	f8d4 02c0 	ldr.w	r0, [r4, #704]	; 0x2c0
 8003d9e:	f7fd fe07 	bl	80019b0 <HAL_PCDEx_PMAConfig>
 8003da2:	2358      	movs	r3, #88	; 0x58
 8003da4:	2200      	movs	r2, #0
 8003da6:	2180      	movs	r1, #128	; 0x80
 8003da8:	f8d4 02c0 	ldr.w	r0, [r4, #704]	; 0x2c0
 8003dac:	f7fd fe00 	bl	80019b0 <HAL_PCDEx_PMAConfig>
 8003db0:	23c0      	movs	r3, #192	; 0xc0
 8003db2:	2200      	movs	r2, #0
 8003db4:	2181      	movs	r1, #129	; 0x81
 8003db6:	f8d4 02c0 	ldr.w	r0, [r4, #704]	; 0x2c0
 8003dba:	f7fd fdf9 	bl	80019b0 <HAL_PCDEx_PMAConfig>
 8003dbe:	f44f 7388 	mov.w	r3, #272	; 0x110
 8003dc2:	2200      	movs	r2, #0
 8003dc4:	2101      	movs	r1, #1
 8003dc6:	f8d4 02c0 	ldr.w	r0, [r4, #704]	; 0x2c0
 8003dca:	f7fd fdf1 	bl	80019b0 <HAL_PCDEx_PMAConfig>
 8003dce:	f44f 7380 	mov.w	r3, #256	; 0x100
 8003dd2:	2200      	movs	r2, #0
 8003dd4:	2182      	movs	r1, #130	; 0x82
 8003dd6:	f8d4 02c0 	ldr.w	r0, [r4, #704]	; 0x2c0
 8003dda:	f7fd fde9 	bl	80019b0 <HAL_PCDEx_PMAConfig>
 8003dde:	2000      	movs	r0, #0
 8003de0:	bd10      	pop	{r4, pc}
 8003de2:	bf00      	nop
 8003de4:	40005c00 	.word	0x40005c00
 8003de8:	20001820 	.word	0x20001820

08003dec <USBD_LL_Start>:
 8003dec:	b508      	push	{r3, lr}
 8003dee:	f8d0 02c0 	ldr.w	r0, [r0, #704]	; 0x2c0
 8003df2:	f7fc ffde 	bl	8000db2 <HAL_PCD_Start>
 8003df6:	e8bd 4008 	ldmia.w	sp!, {r3, lr}
 8003dfa:	f7ff bf2b 	b.w	8003c54 <USBD_Get_USB_Status>

08003dfe <USBD_LL_OpenEP>:
 8003dfe:	b510      	push	{r4, lr}
 8003e00:	4614      	mov	r4, r2
 8003e02:	f8d0 02c0 	ldr.w	r0, [r0, #704]	; 0x2c0
 8003e06:	461a      	mov	r2, r3
 8003e08:	4623      	mov	r3, r4
 8003e0a:	f7fd fcd9 	bl	80017c0 <HAL_PCD_EP_Open>
 8003e0e:	e8bd 4010 	ldmia.w	sp!, {r4, lr}
 8003e12:	f7ff bf1f 	b.w	8003c54 <USBD_Get_USB_Status>

08003e16 <USBD_LL_CloseEP>:
 8003e16:	b508      	push	{r3, lr}
 8003e18:	f8d0 02c0 	ldr.w	r0, [r0, #704]	; 0x2c0
 8003e1c:	f7fd fd00 	bl	8001820 <HAL_PCD_EP_Close>
 8003e20:	e8bd 4008 	ldmia.w	sp!, {r3, lr}
 8003e24:	f7ff bf16 	b.w	8003c54 <USBD_Get_USB_Status>

08003e28 <USBD_LL_StallEP>:
 8003e28:	b508      	push	{r3, lr}
 8003e2a:	f8d0 02c0 	ldr.w	r0, [r0, #704]	; 0x2c0
 8003e2e:	f7fd fd59 	bl	80018e4 <HAL_PCD_EP_SetStall>
 8003e32:	e8bd 4008 	ldmia.w	sp!, {r3, lr}
 8003e36:	f7ff bf0d 	b.w	8003c54 <USBD_Get_USB_Status>

08003e3a <USBD_LL_ClearStallEP>:
 8003e3a:	b508      	push	{r3, lr}
 8003e3c:	f8d0 02c0 	ldr.w	r0, [r0, #704]	; 0x2c0
 8003e40:	f7fd fd84 	bl	800194c <HAL_PCD_EP_ClrStall>
 8003e44:	e8bd 4008 	ldmia.w	sp!, {r3, lr}
 8003e48:	f7ff bf04 	b.w	8003c54 <USBD_Get_USB_Status>

08003e4c <USBD_LL_IsStallEP>:
 8003e4c:	2228      	movs	r2, #40	; 0x28
 8003e4e:	f011 0f80 	tst.w	r1, #128	; 0x80
 8003e52:	f8d0 32c0 	ldr.w	r3, [r0, #704]	; 0x2c0
 8003e56:	bf1b      	ittet	ne
 8003e58:	f001 017f 	andne.w	r1, r1, #127	; 0x7f
 8003e5c:	fb01 2202 	mlane	r2, r1, r2, r2
 8003e60:	fb02 3301 	mlaeq	r3, r2, r1, r3
 8003e64:	189b      	addne	r3, r3, r2
 8003e66:	bf14      	ite	ne
 8003e68:	7898      	ldrbne	r0, [r3, #2]
 8003e6a:	f893 016a 	ldrbeq.w	r0, [r3, #362]	; 0x16a
 8003e6e:	4770      	bx	lr

08003e70 <USBD_LL_SetUSBAddress>:
 8003e70:	b508      	push	{r3, lr}
 8003e72:	f8d0 02c0 	ldr.w	r0, [r0, #704]	; 0x2c0
 8003e76:	f7fc ffb5 	bl	8000de4 <HAL_PCD_SetAddress>
 8003e7a:	e8bd 4008 	ldmia.w	sp!, {r3, lr}
 8003e7e:	f7ff bee9 	b.w	8003c54 <USBD_Get_USB_Status>

08003e82 <USBD_LL_Transmit>:
 8003e82:	b508      	push	{r3, lr}
 8003e84:	f8d0 02c0 	ldr.w	r0, [r0, #704]	; 0x2c0
 8003e88:	f7fd fd12 	bl	80018b0 <HAL_PCD_EP_Transmit>
 8003e8c:	e8bd 4008 	ldmia.w	sp!, {r3, lr}
 8003e90:	f7ff bee0 	b.w	8003c54 <USBD_Get_USB_Status>

08003e94 <USBD_LL_PrepareReceive>:
 8003e94:	b508      	push	{r3, lr}
 8003e96:	f8d0 02c0 	ldr.w	r0, [r0, #704]	; 0x2c0
 8003e9a:	f7fd fcea 	bl	8001872 <HAL_PCD_EP_Receive>
 8003e9e:	e8bd 4008 	ldmia.w	sp!, {r3, lr}
 8003ea2:	f7ff bed7 	b.w	8003c54 <USBD_Get_USB_Status>

08003ea6 <USBD_LL_GetRxDataSize>:
 8003ea6:	f8d0 02c0 	ldr.w	r0, [r0, #704]	; 0x2c0
 8003eaa:	f7fd bcf9 	b.w	80018a0 <HAL_PCD_EP_GetRxCount>
	...

08003eb0 <USBD_static_malloc>:
 8003eb0:	4800      	ldr	r0, [pc, #0]	; (8003eb4 <USBD_static_malloc+0x4>)
 8003eb2:	4770      	bx	lr
 8003eb4:	20001b10 	.word	0x20001b10

08003eb8 <USBD_static_free>:
 8003eb8:	4770      	bx	lr

08003eba <HAL_PCDEx_SetConnectionState>:
 8003eba:	4770      	bx	lr

08003ebc <std>:
 8003ebc:	2300      	movs	r3, #0
 8003ebe:	b510      	push	{r4, lr}
 8003ec0:	4604      	mov	r4, r0
 8003ec2:	e9c0 3300 	strd	r3, r3, [r0]
 8003ec6:	e9c0 3304 	strd	r3, r3, [r0, #16]
 8003eca:	6083      	str	r3, [r0, #8]
 8003ecc:	8181      	strh	r1, [r0, #12]
 8003ece:	6643      	str	r3, [r0, #100]	; 0x64
 8003ed0:	81c2      	strh	r2, [r0, #14]
 8003ed2:	6183      	str	r3, [r0, #24]
 8003ed4:	4619      	mov	r1, r3
 8003ed6:	2208      	movs	r2, #8
 8003ed8:	305c      	adds	r0, #92	; 0x5c
 8003eda:	f000 f92e 	bl	800413a <memset>
 8003ede:	4b0d      	ldr	r3, [pc, #52]	; (8003f14 <std+0x58>)
 8003ee0:	6224      	str	r4, [r4, #32]
 8003ee2:	6263      	str	r3, [r4, #36]	; 0x24
 8003ee4:	4b0c      	ldr	r3, [pc, #48]	; (8003f18 <std+0x5c>)
 8003ee6:	62a3      	str	r3, [r4, #40]	; 0x28
 8003ee8:	4b0c      	ldr	r3, [pc, #48]	; (8003f1c <std+0x60>)
 8003eea:	62e3      	str	r3, [r4, #44]	; 0x2c
 8003eec:	4b0c      	ldr	r3, [pc, #48]	; (8003f20 <std+0x64>)
 8003eee:	6323      	str	r3, [r4, #48]	; 0x30
 8003ef0:	4b0c      	ldr	r3, [pc, #48]	; (8003f24 <std+0x68>)
 8003ef2:	429c      	cmp	r4, r3
 8003ef4:	d006      	beq.n	8003f04 <std+0x48>
 8003ef6:	f103 0268 	add.w	r2, r3, #104	; 0x68
 8003efa:	4294      	cmp	r4, r2
 8003efc:	d002      	beq.n	8003f04 <std+0x48>
 8003efe:	33d0      	adds	r3, #208	; 0xd0
 8003f00:	429c      	cmp	r4, r3
 8003f02:	d105      	bne.n	8003f10 <std+0x54>
 8003f04:	f104 0058 	add.w	r0, r4, #88	; 0x58
 8003f08:	e8bd 4010 	ldmia.w	sp!, {r4, lr}
 8003f0c:	f000 b98e 	b.w	800422c <__retarget_lock_init_recursive>
 8003f10:	bd10      	pop	{r4, pc}
 8003f12:	bf00      	nop
 8003f14:	080040b5 	.word	0x080040b5
 8003f18:	080040d7 	.word	0x080040d7
 8003f1c:	0800410f 	.word	0x0800410f
 8003f20:	08004133 	.word	0x08004133
 8003f24:	20001d30 	.word	0x20001d30

08003f28 <stdio_exit_handler>:
 8003f28:	4a02      	ldr	r2, [pc, #8]	; (8003f34 <stdio_exit_handler+0xc>)
 8003f2a:	4903      	ldr	r1, [pc, #12]	; (8003f38 <stdio_exit_handler+0x10>)
 8003f2c:	4803      	ldr	r0, [pc, #12]	; (8003f3c <stdio_exit_handler+0x14>)
 8003f2e:	f000 b869 	b.w	8004004 <_fwalk_sglue>
 8003f32:	bf00      	nop
 8003f34:	20000180 	.word	0x20000180
 8003f38:	08004d99 	.word	0x08004d99
 8003f3c:	2000018c 	.word	0x2000018c

08003f40 <cleanup_stdio>:
 8003f40:	6841      	ldr	r1, [r0, #4]
 8003f42:	4b0c      	ldr	r3, [pc, #48]	; (8003f74 <cleanup_stdio+0x34>)
 8003f44:	b510      	push	{r4, lr}
 8003f46:	4299      	cmp	r1, r3
 8003f48:	4604      	mov	r4, r0
 8003f4a:	d001      	beq.n	8003f50 <cleanup_stdio+0x10>
 8003f4c:	f000 ff24 	bl	8004d98 <_fflush_r>
 8003f50:	68a1      	ldr	r1, [r4, #8]
 8003f52:	4b09      	ldr	r3, [pc, #36]	; (8003f78 <cleanup_stdio+0x38>)
 8003f54:	4299      	cmp	r1, r3
 8003f56:	d002      	beq.n	8003f5e <cleanup_stdio+0x1e>
 8003f58:	4620      	mov	r0, r4
 8003f5a:	f000 ff1d 	bl	8004d98 <_fflush_r>
 8003f5e:	68e1      	ldr	r1, [r4, #12]
 8003f60:	4b06      	ldr	r3, [pc, #24]	; (8003f7c <cleanup_stdio+0x3c>)
 8003f62:	4299      	cmp	r1, r3
 8003f64:	d004      	beq.n	8003f70 <cleanup_stdio+0x30>
 8003f66:	4620      	mov	r0, r4
 8003f68:	e8bd 4010 	ldmia.w	sp!, {r4, lr}
 8003f6c:	f000 bf14 	b.w	8004d98 <_fflush_r>
 8003f70:	bd10      	pop	{r4, pc}
 8003f72:	bf00      	nop
 8003f74:	20001d30 	.word	0x20001d30
 8003f78:	20001d98 	.word	0x20001d98
 8003f7c:	20001e00 	.word	0x20001e00

08003f80 <global_stdio_init.part.0>:
 8003f80:	b510      	push	{r4, lr}
 8003f82:	4b0b      	ldr	r3, [pc, #44]	; (8003fb0 <global_stdio_init.part.0+0x30>)
 8003f84:	4c0b      	ldr	r4, [pc, #44]	; (8003fb4 <global_stdio_init.part.0+0x34>)
 8003f86:	4a0c      	ldr	r2, [pc, #48]	; (8003fb8 <global_stdio_init.part.0+0x38>)
 8003f88:	4620      	mov	r0, r4
 8003f8a:	601a      	str	r2, [r3, #0]
 8003f8c:	2104      	movs	r1, #4
 8003f8e:	2200      	movs	r2, #0
 8003f90:	f7ff ff94 	bl	8003ebc <std>
 8003f94:	f104 0068 	add.w	r0, r4, #104	; 0x68
 8003f98:	2201      	movs	r2, #1
 8003f9a:	2109      	movs	r1, #9
 8003f9c:	f7ff ff8e 	bl	8003ebc <std>
 8003fa0:	f104 00d0 	add.w	r0, r4, #208	; 0xd0
 8003fa4:	2202      	movs	r2, #2
 8003fa6:	e8bd 4010 	ldmia.w	sp!, {r4, lr}
 8003faa:	2112      	movs	r1, #18
 8003fac:	f7ff bf86 	b.w	8003ebc <std>
 8003fb0:	20001e68 	.word	0x20001e68
 8003fb4:	20001d30 	.word	0x20001d30
 8003fb8:	08003f29 	.word	0x08003f29

08003fbc <__sfp_lock_acquire>:
 8003fbc:	4801      	ldr	r0, [pc, #4]	; (8003fc4 <__sfp_lock_acquire+0x8>)
 8003fbe:	f000 b936 	b.w	800422e <__retarget_lock_acquire_recursive>
 8003fc2:	bf00      	nop
 8003fc4:	20001e71 	.word	0x20001e71

08003fc8 <__sfp_lock_release>:
 8003fc8:	4801      	ldr	r0, [pc, #4]	; (8003fd0 <__sfp_lock_release+0x8>)
 8003fca:	f000 b931 	b.w	8004230 <__retarget_lock_release_recursive>
 8003fce:	bf00      	nop
 8003fd0:	20001e71 	.word	0x20001e71

08003fd4 <__sinit>:
 8003fd4:	b510      	push	{r4, lr}
 8003fd6:	4604      	mov	r4, r0
 8003fd8:	f7ff fff0 	bl	8003fbc <__sfp_lock_acquire>
 8003fdc:	6a23      	ldr	r3, [r4, #32]
 8003fde:	b11b      	cbz	r3, 8003fe8 <__sinit+0x14>
 8003fe0:	e8bd 4010 	ldmia.w	sp!, {r4, lr}
 8003fe4:	f7ff bff0 	b.w	8003fc8 <__sfp_lock_release>
 8003fe8:	4b04      	ldr	r3, [pc, #16]	; (8003ffc <__sinit+0x28>)
 8003fea:	6223      	str	r3, [r4, #32]
 8003fec:	4b04      	ldr	r3, [pc, #16]	; (8004000 <__sinit+0x2c>)
 8003fee:	681b      	ldr	r3, [r3, #0]
 8003ff0:	2b00      	cmp	r3, #0
 8003ff2:	d1f5      	bne.n	8003fe0 <__sinit+0xc>
 8003ff4:	f7ff ffc4 	bl	8003f80 <global_stdio_init.part.0>
 8003ff8:	e7f2      	b.n	8003fe0 <__sinit+0xc>
 8003ffa:	bf00      	nop
 8003ffc:	08003f41 	.word	0x08003f41
 8004000:	20001e68 	.word	0x20001e68

08004004 <_fwalk_sglue>:
 8004004:	e92d 43f8 	stmdb	sp!, {r3, r4, r5, r6, r7, r8, r9, lr}
 8004008:	4607      	mov	r7, r0
 800400a:	4688      	mov	r8, r1
 800400c:	4614      	mov	r4, r2
 800400e:	2600      	movs	r6, #0
 8004010:	e9d4 9501 	ldrd	r9, r5, [r4, #4]
 8004014:	f1b9 0901 	subs.w	r9, r9, #1
 8004018:	d505      	bpl.n	8004026 <_fwalk_sglue+0x22>
 800401a:	6824      	ldr	r4, [r4, #0]
 800401c:	2c00      	cmp	r4, #0
 800401e:	d1f7      	bne.n	8004010 <_fwalk_sglue+0xc>
 8004020:	4630      	mov	r0, r6
 8004022:	e8bd 83f8 	ldmia.w	sp!, {r3, r4, r5, r6, r7, r8, r9, pc}
 8004026:	89ab      	ldrh	r3, [r5, #12]
 8004028:	2b01      	cmp	r3, #1
 800402a:	d907      	bls.n	800403c <_fwalk_sglue+0x38>
 800402c:	f9b5 300e 	ldrsh.w	r3, [r5, #14]
 8004030:	3301      	adds	r3, #1
 8004032:	d003      	beq.n	800403c <_fwalk_sglue+0x38>
 8004034:	4629      	mov	r1, r5
 8004036:	4638      	mov	r0, r7
 8004038:	47c0      	blx	r8
 800403a:	4306      	orrs	r6, r0
 800403c:	3568      	adds	r5, #104	; 0x68
 800403e:	e7e9      	b.n	8004014 <_fwalk_sglue+0x10>

08004040 <iprintf>:
 8004040:	b40f      	push	{r0, r1, r2, r3}
 8004042:	b507      	push	{r0, r1, r2, lr}
 8004044:	4906      	ldr	r1, [pc, #24]	; (8004060 <iprintf+0x20>)
 8004046:	ab04      	add	r3, sp, #16
 8004048:	6808      	ldr	r0, [r1, #0]
 800404a:	f853 2b04 	ldr.w	r2, [r3], #4
 800404e:	6881      	ldr	r1, [r0, #8]
 8004050:	9301      	str	r3, [sp, #4]
 8004052:	f000 fb71 	bl	8004738 <_vfiprintf_r>
 8004056:	b003      	add	sp, #12
 8004058:	f85d eb04 	ldr.w	lr, [sp], #4
 800405c:	b004      	add	sp, #16
 800405e:	4770      	bx	lr
 8004060:	200001d8 	.word	0x200001d8

08004064 <putchar>:
 8004064:	4b02      	ldr	r3, [pc, #8]	; (8004070 <putchar+0xc>)
 8004066:	4601      	mov	r1, r0
 8004068:	6818      	ldr	r0, [r3, #0]
 800406a:	6882      	ldr	r2, [r0, #8]
 800406c:	f000 bebc 	b.w	8004de8 <_putc_r>
 8004070:	200001d8 	.word	0x200001d8

08004074 <siprintf>:
 8004074:	b40e      	push	{r1, r2, r3}
 8004076:	f06f 4100 	mvn.w	r1, #2147483648	; 0x80000000
 800407a:	b500      	push	{lr}
 800407c:	b09c      	sub	sp, #112	; 0x70
 800407e:	ab1d      	add	r3, sp, #116	; 0x74
 8004080:	9002      	str	r0, [sp, #8]
 8004082:	9006      	str	r0, [sp, #24]
 8004084:	9107      	str	r1, [sp, #28]
 8004086:	9104      	str	r1, [sp, #16]
 8004088:	4808      	ldr	r0, [pc, #32]	; (80040ac <siprintf+0x38>)
 800408a:	4909      	ldr	r1, [pc, #36]	; (80040b0 <siprintf+0x3c>)
 800408c:	f853 2b04 	ldr.w	r2, [r3], #4
 8004090:	9105      	str	r1, [sp, #20]
 8004092:	6800      	ldr	r0, [r0, #0]
 8004094:	a902      	add	r1, sp, #8
 8004096:	9301      	str	r3, [sp, #4]
 8004098:	f000 fa28 	bl	80044ec <_svfiprintf_r>
 800409c:	2200      	movs	r2, #0
 800409e:	9b02      	ldr	r3, [sp, #8]
 80040a0:	701a      	strb	r2, [r3, #0]
 80040a2:	b01c      	add	sp, #112	; 0x70
 80040a4:	f85d eb04 	ldr.w	lr, [sp], #4
 80040a8:	b003      	add	sp, #12
 80040aa:	4770      	bx	lr
 80040ac:	200001d8 	.word	0x200001d8
 80040b0:	ffff0208 	.word	0xffff0208

080040b4 <__sread>:
 80040b4:	b510      	push	{r4, lr}
 80040b6:	460c      	mov	r4, r1
 80040b8:	f9b1 100e 	ldrsh.w	r1, [r1, #14]
 80040bc:	f000 f868 	bl	8004190 <_read_r>
 80040c0:	2800      	cmp	r0, #0
 80040c2:	bfab      	itete	ge
 80040c4:	6d63      	ldrge	r3, [r4, #84]	; 0x54
 80040c6:	89a3      	ldrhlt	r3, [r4, #12]
 80040c8:	181b      	addge	r3, r3, r0
 80040ca:	f423 5380 	biclt.w	r3, r3, #4096	; 0x1000
 80040ce:	bfac      	ite	ge
 80040d0:	6563      	strge	r3, [r4, #84]	; 0x54
 80040d2:	81a3      	strhlt	r3, [r4, #12]
 80040d4:	bd10      	pop	{r4, pc}

080040d6 <__swrite>:
 80040d6:	e92d 41f0 	stmdb	sp!, {r4, r5, r6, r7, r8, lr}
 80040da:	461f      	mov	r7, r3
 80040dc:	898b      	ldrh	r3, [r1, #12]
 80040de:	4605      	mov	r5, r0
 80040e0:	05db      	lsls	r3, r3, #23
 80040e2:	460c      	mov	r4, r1
 80040e4:	4616      	mov	r6, r2
 80040e6:	d505      	bpl.n	80040f4 <__swrite+0x1e>
 80040e8:	2302      	movs	r3, #2
 80040ea:	2200      	movs	r2, #0
 80040ec:	f9b1 100e 	ldrsh.w	r1, [r1, #14]
 80040f0:	f000 f83c 	bl	800416c <_lseek_r>
 80040f4:	89a3      	ldrh	r3, [r4, #12]
 80040f6:	4632      	mov	r2, r6
 80040f8:	f423 5380 	bic.w	r3, r3, #4096	; 0x1000
 80040fc:	81a3      	strh	r3, [r4, #12]
 80040fe:	4628      	mov	r0, r5
 8004100:	463b      	mov	r3, r7
 8004102:	f9b4 100e 	ldrsh.w	r1, [r4, #14]
 8004106:	e8bd 41f0 	ldmia.w	sp!, {r4, r5, r6, r7, r8, lr}
 800410a:	f000 b853 	b.w	80041b4 <_write_r>

0800410e <__sseek>:
 800410e:	b510      	push	{r4, lr}
 8004110:	460c      	mov	r4, r1
 8004112:	f9b1 100e 	ldrsh.w	r1, [r1, #14]
 8004116:	f000 f829 	bl	800416c <_lseek_r>
 800411a:	1c43      	adds	r3, r0, #1
 800411c:	89a3      	ldrh	r3, [r4, #12]
 800411e:	bf15      	itete	ne
 8004120:	6560      	strne	r0, [r4, #84]	; 0x54
 8004122:	f423 5380 	biceq.w	r3, r3, #4096	; 0x1000
 8004126:	f443 5380 	orrne.w	r3, r3, #4096	; 0x1000
 800412a:	81a3      	strheq	r3, [r4, #12]
 800412c:	bf18      	it	ne
 800412e:	81a3      	strhne	r3, [r4, #12]
 8004130:	bd10      	pop	{r4, pc}

08004132 <__sclose>:
 8004132:	f9b1 100e 	ldrsh.w	r1, [r1, #14]
 8004136:	f000 b809 	b.w	800414c <_close_r>

0800413a <memset>:
 800413a:	4603      	mov	r3, r0
 800413c:	4402      	add	r2, r0
 800413e:	4293      	cmp	r3, r2
 8004140:	d100      	bne.n	8004144 <memset+0xa>
 8004142:	4770      	bx	lr
 8004144:	f803 1b01 	strb.w	r1, [r3], #1
 8004148:	e7f9      	b.n	800413e <memset+0x4>
	...

0800414c <_close_r>:
 800414c:	b538      	push	{r3, r4, r5, lr}
 800414e:	2300      	movs	r3, #0
 8004150:	4d05      	ldr	r5, [pc, #20]	; (8004168 <_close_r+0x1c>)
 8004152:	4604      	mov	r4, r0
 8004154:	4608      	mov	r0, r1
 8004156:	602b      	str	r3, [r5, #0]
 8004158:	f7fc fb68 	bl	800082c <_close>
 800415c:	1c43      	adds	r3, r0, #1
 800415e:	d102      	bne.n	8004166 <_close_r+0x1a>
 8004160:	682b      	ldr	r3, [r5, #0]
 8004162:	b103      	cbz	r3, 8004166 <_close_r+0x1a>
 8004164:	6023      	str	r3, [r4, #0]
 8004166:	bd38      	pop	{r3, r4, r5, pc}
 8004168:	20001e6c 	.word	0x20001e6c

0800416c <_lseek_r>:
 800416c:	b538      	push	{r3, r4, r5, lr}
 800416e:	4604      	mov	r4, r0
 8004170:	4608      	mov	r0, r1
 8004172:	4611      	mov	r1, r2
 8004174:	2200      	movs	r2, #0
 8004176:	4d05      	ldr	r5, [pc, #20]	; (800418c <_lseek_r+0x20>)
 8004178:	602a      	str	r2, [r5, #0]
 800417a:	461a      	mov	r2, r3
 800417c:	f7fc fb60 	bl	8000840 <_lseek>
 8004180:	1c43      	adds	r3, r0, #1
 8004182:	d102      	bne.n	800418a <_lseek_r+0x1e>
 8004184:	682b      	ldr	r3, [r5, #0]
 8004186:	b103      	cbz	r3, 800418a <_lseek_r+0x1e>
 8004188:	6023      	str	r3, [r4, #0]
 800418a:	bd38      	pop	{r3, r4, r5, pc}
 800418c:	20001e6c 	.word	0x20001e6c

08004190 <_read_r>:
 8004190:	b538      	push	{r3, r4, r5, lr}
 8004192:	4604      	mov	r4, r0
 8004194:	4608      	mov	r0, r1
 8004196:	4611      	mov	r1, r2
 8004198:	2200      	movs	r2, #0
 800419a:	4d05      	ldr	r5, [pc, #20]	; (80041b0 <_read_r+0x20>)
 800419c:	602a      	str	r2, [r5, #0]
 800419e:	461a      	mov	r2, r3
 80041a0:	f7fc fb28 	bl	80007f4 <_read>
 80041a4:	1c43      	adds	r3, r0, #1
 80041a6:	d102      	bne.n	80041ae <_read_r+0x1e>
 80041a8:	682b      	ldr	r3, [r5, #0]
 80041aa:	b103      	cbz	r3, 80041ae <_read_r+0x1e>
 80041ac:	6023      	str	r3, [r4, #0]
 80041ae:	bd38      	pop	{r3, r4, r5, pc}
 80041b0:	20001e6c 	.word	0x20001e6c

080041b4 <_write_r>:
 80041b4:	b538      	push	{r3, r4, r5, lr}
 80041b6:	4604      	mov	r4, r0
 80041b8:	4608      	mov	r0, r1
 80041ba:	4611      	mov	r1, r2
 80041bc:	2200      	movs	r2, #0
 80041be:	4d05      	ldr	r5, [pc, #20]	; (80041d4 <_write_r+0x20>)
 80041c0:	602a      	str	r2, [r5, #0]
 80041c2:	461a      	mov	r2, r3
 80041c4:	f7fc fb24 	bl	8000810 <_write>
 80041c8:	1c43      	adds	r3, r0, #1
 80041ca:	d102      	bne.n	80041d2 <_write_r+0x1e>
 80041cc:	682b      	ldr	r3, [r5, #0]
 80041ce:	b103      	cbz	r3, 80041d2 <_write_r+0x1e>
 80041d0:	6023      	str	r3, [r4, #0]
 80041d2:	bd38      	pop	{r3, r4, r5, pc}
 80041d4:	20001e6c 	.word	0x20001e6c

080041d8 <__errno>:
 80041d8:	4b01      	ldr	r3, [pc, #4]	; (80041e0 <__errno+0x8>)
 80041da:	6818      	ldr	r0, [r3, #0]
 80041dc:	4770      	bx	lr
 80041de:	bf00      	nop
 80041e0:	200001d8 	.word	0x200001d8

080041e4 <__libc_init_array>:
 80041e4:	b570      	push	{r4, r5, r6, lr}
 80041e6:	2600      	movs	r6, #0
 80041e8:	4d0c      	ldr	r5, [pc, #48]	; (800421c <__libc_init_array+0x38>)
 80041ea:	4c0d      	ldr	r4, [pc, #52]	; (8004220 <__libc_init_array+0x3c>)
 80041ec:	1b64      	subs	r4, r4, r5
 80041ee:	10a4      	asrs	r4, r4, #2
 80041f0:	42a6      	cmp	r6, r4
 80041f2:	d109      	bne.n	8004208 <__libc_init_array+0x24>
 80041f4:	f000 ffb4 	bl	8005160 <_init>
 80041f8:	2600      	movs	r6, #0
 80041fa:	4d0a      	ldr	r5, [pc, #40]	; (8004224 <__libc_init_array+0x40>)
 80041fc:	4c0a      	ldr	r4, [pc, #40]	; (8004228 <__libc_init_array+0x44>)
 80041fe:	1b64      	subs	r4, r4, r5
 8004200:	10a4      	asrs	r4, r4, #2
 8004202:	42a6      	cmp	r6, r4
 8004204:	d105      	bne.n	8004212 <__libc_init_array+0x2e>
 8004206:	bd70      	pop	{r4, r5, r6, pc}
 8004208:	f855 3b04 	ldr.w	r3, [r5], #4
 800420c:	4798      	blx	r3
 800420e:	3601      	adds	r6, #1
 8004210:	e7ee      	b.n	80041f0 <__libc_init_array+0xc>
 8004212:	f855 3b04 	ldr.w	r3, [r5], #4
 8004216:	4798      	blx	r3
 8004218:	3601      	adds	r6, #1
 800421a:	e7f2      	b.n	8004202 <__libc_init_array+0x1e>
 800421c:	08005284 	.word	0x08005284
 8004220:	08005284 	.word	0x08005284
 8004224:	08005284 	.word	0x08005284
 8004228:	08005288 	.word	0x08005288

0800422c <__retarget_lock_init_recursive>:
 800422c:	4770      	bx	lr

0800422e <__retarget_lock_acquire_recursive>:
 800422e:	4770      	bx	lr

08004230 <__retarget_lock_release_recursive>:
 8004230:	4770      	bx	lr

08004232 <memcpy>:
 8004232:	440a      	add	r2, r1
 8004234:	4291      	cmp	r1, r2
 8004236:	f100 33ff 	add.w	r3, r0, #4294967295
 800423a:	d100      	bne.n	800423e <memcpy+0xc>
 800423c:	4770      	bx	lr
 800423e:	b510      	push	{r4, lr}
 8004240:	f811 4b01 	ldrb.w	r4, [r1], #1
 8004244:	4291      	cmp	r1, r2
 8004246:	f803 4f01 	strb.w	r4, [r3, #1]!
 800424a:	d1f9      	bne.n	8004240 <memcpy+0xe>
 800424c:	bd10      	pop	{r4, pc}
	...

08004250 <_free_r>:
 8004250:	b538      	push	{r3, r4, r5, lr}
 8004252:	4605      	mov	r5, r0
 8004254:	2900      	cmp	r1, #0
 8004256:	d040      	beq.n	80042da <_free_r+0x8a>
 8004258:	f851 3c04 	ldr.w	r3, [r1, #-4]
 800425c:	1f0c      	subs	r4, r1, #4
 800425e:	2b00      	cmp	r3, #0
 8004260:	bfb8      	it	lt
 8004262:	18e4      	addlt	r4, r4, r3
 8004264:	f000 f8dc 	bl	8004420 <__malloc_lock>
 8004268:	4a1c      	ldr	r2, [pc, #112]	; (80042dc <_free_r+0x8c>)
 800426a:	6813      	ldr	r3, [r2, #0]
 800426c:	b933      	cbnz	r3, 800427c <_free_r+0x2c>
 800426e:	6063      	str	r3, [r4, #4]
 8004270:	6014      	str	r4, [r2, #0]
 8004272:	4628      	mov	r0, r5
 8004274:	e8bd 4038 	ldmia.w	sp!, {r3, r4, r5, lr}
 8004278:	f000 b8d8 	b.w	800442c <__malloc_unlock>
 800427c:	42a3      	cmp	r3, r4
 800427e:	d908      	bls.n	8004292 <_free_r+0x42>
 8004280:	6820      	ldr	r0, [r4, #0]
 8004282:	1821      	adds	r1, r4, r0
 8004284:	428b      	cmp	r3, r1
 8004286:	bf01      	itttt	eq
 8004288:	6819      	ldreq	r1, [r3, #0]
 800428a:	685b      	ldreq	r3, [r3, #4]
 800428c:	1809      	addeq	r1, r1, r0
 800428e:	6021      	streq	r1, [r4, #0]
 8004290:	e7ed      	b.n	800426e <_free_r+0x1e>
 8004292:	461a      	mov	r2, r3
 8004294:	685b      	ldr	r3, [r3, #4]
 8004296:	b10b      	cbz	r3, 800429c <_free_r+0x4c>
 8004298:	42a3      	cmp	r3, r4
 800429a:	d9fa      	bls.n	8004292 <_free_r+0x42>
 800429c:	6811      	ldr	r1, [r2, #0]
 800429e:	1850      	adds	r0, r2, r1
 80042a0:	42a0      	cmp	r0, r4
 80042a2:	d10b      	bne.n	80042bc <_free_r+0x6c>
 80042a4:	6820      	ldr	r0, [r4, #0]
 80042a6:	4401      	add	r1, r0
 80042a8:	1850      	adds	r0, r2, r1
 80042aa:	4283      	cmp	r3, r0
 80042ac:	6011      	str	r1, [r2, #0]
 80042ae:	d1e0      	bne.n	8004272 <_free_r+0x22>
 80042b0:	6818      	ldr	r0, [r3, #0]
 80042b2:	685b      	ldr	r3, [r3, #4]
 80042b4:	4408      	add	r0, r1
 80042b6:	6010      	str	r0, [r2, #0]
 80042b8:	6053      	str	r3, [r2, #4]
 80042ba:	e7da      	b.n	8004272 <_free_r+0x22>
 80042bc:	d902      	bls.n	80042c4 <_free_r+0x74>
 80042be:	230c      	movs	r3, #12
 80042c0:	602b      	str	r3, [r5, #0]
 80042c2:	e7d6      	b.n	8004272 <_free_r+0x22>
 80042c4:	6820      	ldr	r0, [r4, #0]
 80042c6:	1821      	adds	r1, r4, r0
 80042c8:	428b      	cmp	r3, r1
 80042ca:	bf01      	itttt	eq
 80042cc:	6819      	ldreq	r1, [r3, #0]
 80042ce:	685b      	ldreq	r3, [r3, #4]
 80042d0:	1809      	addeq	r1, r1, r0
 80042d2:	6021      	streq	r1, [r4, #0]
 80042d4:	6063      	str	r3, [r4, #4]
 80042d6:	6054      	str	r4, [r2, #4]
 80042d8:	e7cb      	b.n	8004272 <_free_r+0x22>
 80042da:	bd38      	pop	{r3, r4, r5, pc}
 80042dc:	20001e74 	.word	0x20001e74

080042e0 <sbrk_aligned>:
 80042e0:	b570      	push	{r4, r5, r6, lr}
 80042e2:	4e0e      	ldr	r6, [pc, #56]	; (800431c <sbrk_aligned+0x3c>)
 80042e4:	460c      	mov	r4, r1
 80042e6:	6831      	ldr	r1, [r6, #0]
 80042e8:	4605      	mov	r5, r0
 80042ea:	b911      	cbnz	r1, 80042f2 <sbrk_aligned+0x12>
 80042ec:	f000 fe60 	bl	8004fb0 <_sbrk_r>
 80042f0:	6030      	str	r0, [r6, #0]
 80042f2:	4621      	mov	r1, r4
 80042f4:	4628      	mov	r0, r5
 80042f6:	f000 fe5b 	bl	8004fb0 <_sbrk_r>
 80042fa:	1c43      	adds	r3, r0, #1
 80042fc:	d00a      	beq.n	8004314 <sbrk_aligned+0x34>
 80042fe:	1cc4      	adds	r4, r0, #3
 8004300:	f024 0403 	bic.w	r4, r4, #3
 8004304:	42a0      	cmp	r0, r4
 8004306:	d007      	beq.n	8004318 <sbrk_aligned+0x38>
 8004308:	1a21      	subs	r1, r4, r0
 800430a:	4628      	mov	r0, r5
 800430c:	f000 fe50 	bl	8004fb0 <_sbrk_r>
 8004310:	3001      	adds	r0, #1
 8004312:	d101      	bne.n	8004318 <sbrk_aligned+0x38>
 8004314:	f04f 34ff 	mov.w	r4, #4294967295
 8004318:	4620      	mov	r0, r4
 800431a:	bd70      	pop	{r4, r5, r6, pc}
 800431c:	20001e78 	.word	0x20001e78

08004320 <_malloc_r>:
 8004320:	e92d 43f8 	stmdb	sp!, {r3, r4, r5, r6, r7, r8, r9, lr}
 8004324:	1ccd      	adds	r5, r1, #3
 8004326:	f025 0503 	bic.w	r5, r5, #3
 800432a:	3508      	adds	r5, #8
 800432c:	2d0c      	cmp	r5, #12
 800432e:	bf38      	it	cc
 8004330:	250c      	movcc	r5, #12
 8004332:	2d00      	cmp	r5, #0
 8004334:	4607      	mov	r7, r0
 8004336:	db01      	blt.n	800433c <_malloc_r+0x1c>
 8004338:	42a9      	cmp	r1, r5
 800433a:	d905      	bls.n	8004348 <_malloc_r+0x28>
 800433c:	230c      	movs	r3, #12
 800433e:	2600      	movs	r6, #0
 8004340:	603b      	str	r3, [r7, #0]
 8004342:	4630      	mov	r0, r6
 8004344:	e8bd 83f8 	ldmia.w	sp!, {r3, r4, r5, r6, r7, r8, r9, pc}
 8004348:	f8df 80d0 	ldr.w	r8, [pc, #208]	; 800441c <_malloc_r+0xfc>
 800434c:	f000 f868 	bl	8004420 <__malloc_lock>
 8004350:	f8d8 3000 	ldr.w	r3, [r8]
 8004354:	461c      	mov	r4, r3
 8004356:	bb5c      	cbnz	r4, 80043b0 <_malloc_r+0x90>
 8004358:	4629      	mov	r1, r5
 800435a:	4638      	mov	r0, r7
 800435c:	f7ff ffc0 	bl	80042e0 <sbrk_aligned>
 8004360:	1c43      	adds	r3, r0, #1
 8004362:	4604      	mov	r4, r0
 8004364:	d155      	bne.n	8004412 <_malloc_r+0xf2>
 8004366:	f8d8 4000 	ldr.w	r4, [r8]
 800436a:	4626      	mov	r6, r4
 800436c:	2e00      	cmp	r6, #0
 800436e:	d145      	bne.n	80043fc <_malloc_r+0xdc>
 8004370:	2c00      	cmp	r4, #0
 8004372:	d048      	beq.n	8004406 <_malloc_r+0xe6>
 8004374:	6823      	ldr	r3, [r4, #0]
 8004376:	4631      	mov	r1, r6
 8004378:	4638      	mov	r0, r7
 800437a:	eb04 0903 	add.w	r9, r4, r3
 800437e:	f000 fe17 	bl	8004fb0 <_sbrk_r>
 8004382:	4581      	cmp	r9, r0
 8004384:	d13f      	bne.n	8004406 <_malloc_r+0xe6>
 8004386:	6821      	ldr	r1, [r4, #0]
 8004388:	4638      	mov	r0, r7
 800438a:	1a6d      	subs	r5, r5, r1
 800438c:	4629      	mov	r1, r5
 800438e:	f7ff ffa7 	bl	80042e0 <sbrk_aligned>
 8004392:	3001      	adds	r0, #1
 8004394:	d037      	beq.n	8004406 <_malloc_r+0xe6>
 8004396:	6823      	ldr	r3, [r4, #0]
 8004398:	442b      	add	r3, r5
 800439a:	6023      	str	r3, [r4, #0]
 800439c:	f8d8 3000 	ldr.w	r3, [r8]
 80043a0:	2b00      	cmp	r3, #0
 80043a2:	d038      	beq.n	8004416 <_malloc_r+0xf6>
 80043a4:	685a      	ldr	r2, [r3, #4]
 80043a6:	42a2      	cmp	r2, r4
 80043a8:	d12b      	bne.n	8004402 <_malloc_r+0xe2>
 80043aa:	2200      	movs	r2, #0
 80043ac:	605a      	str	r2, [r3, #4]
 80043ae:	e00f      	b.n	80043d0 <_malloc_r+0xb0>
 80043b0:	6822      	ldr	r2, [r4, #0]
 80043b2:	1b52      	subs	r2, r2, r5
 80043b4:	d41f      	bmi.n	80043f6 <_malloc_r+0xd6>
 80043b6:	2a0b      	cmp	r2, #11
 80043b8:	d917      	bls.n	80043ea <_malloc_r+0xca>
 80043ba:	1961      	adds	r1, r4, r5
 80043bc:	42a3      	cmp	r3, r4
 80043be:	6025      	str	r5, [r4, #0]
 80043c0:	bf18      	it	ne
 80043c2:	6059      	strne	r1, [r3, #4]
 80043c4:	6863      	ldr	r3, [r4, #4]
 80043c6:	bf08      	it	eq
 80043c8:	f8c8 1000 	streq.w	r1, [r8]
 80043cc:	5162      	str	r2, [r4, r5]
 80043ce:	604b      	str	r3, [r1, #4]
 80043d0:	4638      	mov	r0, r7
 80043d2:	f104 060b 	add.w	r6, r4, #11
 80043d6:	f000 f829 	bl	800442c <__malloc_unlock>
 80043da:	f026 0607 	bic.w	r6, r6, #7
 80043de:	1d23      	adds	r3, r4, #4
 80043e0:	1af2      	subs	r2, r6, r3
 80043e2:	d0ae      	beq.n	8004342 <_malloc_r+0x22>
 80043e4:	1b9b      	subs	r3, r3, r6
 80043e6:	50a3      	str	r3, [r4, r2]
 80043e8:	e7ab      	b.n	8004342 <_malloc_r+0x22>
 80043ea:	42a3      	cmp	r3, r4
 80043ec:	6862      	ldr	r2, [r4, #4]
 80043ee:	d1dd      	bne.n	80043ac <_malloc_r+0x8c>
 80043f0:	f8c8 2000 	str.w	r2, [r8]
 80043f4:	e7ec      	b.n	80043d0 <_malloc_r+0xb0>
 80043f6:	4623      	mov	r3, r4
 80043f8:	6864      	ldr	r4, [r4, #4]
 80043fa:	e7ac      	b.n	8004356 <_malloc_r+0x36>
 80043fc:	4634      	mov	r4, r6
 80043fe:	6876      	ldr	r6, [r6, #4]
 8004400:	e7b4      	b.n	800436c <_malloc_r+0x4c>
 8004402:	4613      	mov	r3, r2
 8004404:	e7cc      	b.n	80043a0 <_malloc_r+0x80>
 8004406:	230c      	movs	r3, #12
 8004408:	4638      	mov	r0, r7
 800440a:	603b      	str	r3, [r7, #0]
 800440c:	f000 f80e 	bl	800442c <__malloc_unlock>
 8004410:	e797      	b.n	8004342 <_malloc_r+0x22>
 8004412:	6025      	str	r5, [r4, #0]
 8004414:	e7dc      	b.n	80043d0 <_malloc_r+0xb0>
 8004416:	605b      	str	r3, [r3, #4]
 8004418:	deff      	udf	#255	; 0xff
 800441a:	bf00      	nop
 800441c:	20001e74 	.word	0x20001e74

08004420 <__malloc_lock>:
 8004420:	4801      	ldr	r0, [pc, #4]	; (8004428 <__malloc_lock+0x8>)
 8004422:	f7ff bf04 	b.w	800422e <__retarget_lock_acquire_recursive>
 8004426:	bf00      	nop
 8004428:	20001e70 	.word	0x20001e70

0800442c <__malloc_unlock>:
 800442c:	4801      	ldr	r0, [pc, #4]	; (8004434 <__malloc_unlock+0x8>)
 800442e:	f7ff beff 	b.w	8004230 <__retarget_lock_release_recursive>
 8004432:	bf00      	nop
 8004434:	20001e70 	.word	0x20001e70

08004438 <__ssputs_r>:
 8004438:	e92d 47f0 	stmdb	sp!, {r4, r5, r6, r7, r8, r9, sl, lr}
 800443c:	461f      	mov	r7, r3
 800443e:	688e      	ldr	r6, [r1, #8]
 8004440:	4682      	mov	sl, r0
 8004442:	42be      	cmp	r6, r7
 8004444:	460c      	mov	r4, r1
 8004446:	4690      	mov	r8, r2
 8004448:	680b      	ldr	r3, [r1, #0]
 800444a:	d82c      	bhi.n	80044a6 <__ssputs_r+0x6e>
 800444c:	898a      	ldrh	r2, [r1, #12]
 800444e:	f412 6f90 	tst.w	r2, #1152	; 0x480
 8004452:	d026      	beq.n	80044a2 <__ssputs_r+0x6a>
 8004454:	6965      	ldr	r5, [r4, #20]
 8004456:	6909      	ldr	r1, [r1, #16]
 8004458:	eb05 0545 	add.w	r5, r5, r5, lsl #1
 800445c:	eba3 0901 	sub.w	r9, r3, r1
 8004460:	eb05 75d5 	add.w	r5, r5, r5, lsr #31
 8004464:	1c7b      	adds	r3, r7, #1
 8004466:	444b      	add	r3, r9
 8004468:	106d      	asrs	r5, r5, #1
 800446a:	429d      	cmp	r5, r3
 800446c:	bf38      	it	cc
 800446e:	461d      	movcc	r5, r3
 8004470:	0553      	lsls	r3, r2, #21
 8004472:	d527      	bpl.n	80044c4 <__ssputs_r+0x8c>
 8004474:	4629      	mov	r1, r5
 8004476:	f7ff ff53 	bl	8004320 <_malloc_r>
 800447a:	4606      	mov	r6, r0
 800447c:	b360      	cbz	r0, 80044d8 <__ssputs_r+0xa0>
 800447e:	464a      	mov	r2, r9
 8004480:	6921      	ldr	r1, [r4, #16]
 8004482:	f7ff fed6 	bl	8004232 <memcpy>
 8004486:	89a3      	ldrh	r3, [r4, #12]
 8004488:	f423 6390 	bic.w	r3, r3, #1152	; 0x480
 800448c:	f043 0380 	orr.w	r3, r3, #128	; 0x80
 8004490:	81a3      	strh	r3, [r4, #12]
 8004492:	6126      	str	r6, [r4, #16]
 8004494:	444e      	add	r6, r9
 8004496:	6026      	str	r6, [r4, #0]
 8004498:	463e      	mov	r6, r7
 800449a:	6165      	str	r5, [r4, #20]
 800449c:	eba5 0509 	sub.w	r5, r5, r9
 80044a0:	60a5      	str	r5, [r4, #8]
 80044a2:	42be      	cmp	r6, r7
 80044a4:	d900      	bls.n	80044a8 <__ssputs_r+0x70>
 80044a6:	463e      	mov	r6, r7
 80044a8:	4632      	mov	r2, r6
 80044aa:	4641      	mov	r1, r8
 80044ac:	6820      	ldr	r0, [r4, #0]
 80044ae:	f000 fd65 	bl	8004f7c <memmove>
 80044b2:	2000      	movs	r0, #0
 80044b4:	68a3      	ldr	r3, [r4, #8]
 80044b6:	1b9b      	subs	r3, r3, r6
 80044b8:	60a3      	str	r3, [r4, #8]
 80044ba:	6823      	ldr	r3, [r4, #0]
 80044bc:	4433      	add	r3, r6
 80044be:	6023      	str	r3, [r4, #0]
 80044c0:	e8bd 87f0 	ldmia.w	sp!, {r4, r5, r6, r7, r8, r9, sl, pc}
 80044c4:	462a      	mov	r2, r5
 80044c6:	f000 fd91 	bl	8004fec <_realloc_r>
 80044ca:	4606      	mov	r6, r0
 80044cc:	2800      	cmp	r0, #0
 80044ce:	d1e0      	bne.n	8004492 <__ssputs_r+0x5a>
 80044d0:	4650      	mov	r0, sl
 80044d2:	6921      	ldr	r1, [r4, #16]
 80044d4:	f7ff febc 	bl	8004250 <_free_r>
 80044d8:	230c      	movs	r3, #12
 80044da:	f8ca 3000 	str.w	r3, [sl]
 80044de:	89a3      	ldrh	r3, [r4, #12]
 80044e0:	f04f 30ff 	mov.w	r0, #4294967295
 80044e4:	f043 0340 	orr.w	r3, r3, #64	; 0x40
 80044e8:	81a3      	strh	r3, [r4, #12]
 80044ea:	e7e9      	b.n	80044c0 <__ssputs_r+0x88>

080044ec <_svfiprintf_r>:
 80044ec:	e92d 4ff0 	stmdb	sp!, {r4, r5, r6, r7, r8, r9, sl, fp, lr}
 80044f0:	4698      	mov	r8, r3
 80044f2:	898b      	ldrh	r3, [r1, #12]
 80044f4:	4607      	mov	r7, r0
 80044f6:	061b      	lsls	r3, r3, #24
 80044f8:	460d      	mov	r5, r1
 80044fa:	4614      	mov	r4, r2
 80044fc:	b09d      	sub	sp, #116	; 0x74
 80044fe:	d50e      	bpl.n	800451e <_svfiprintf_r+0x32>
 8004500:	690b      	ldr	r3, [r1, #16]
 8004502:	b963      	cbnz	r3, 800451e <_svfiprintf_r+0x32>
 8004504:	2140      	movs	r1, #64	; 0x40
 8004506:	f7ff ff0b 	bl	8004320 <_malloc_r>
 800450a:	6028      	str	r0, [r5, #0]
 800450c:	6128      	str	r0, [r5, #16]
 800450e:	b920      	cbnz	r0, 800451a <_svfiprintf_r+0x2e>
 8004510:	230c      	movs	r3, #12
 8004512:	603b      	str	r3, [r7, #0]
 8004514:	f04f 30ff 	mov.w	r0, #4294967295
 8004518:	e0d0      	b.n	80046bc <_svfiprintf_r+0x1d0>
 800451a:	2340      	movs	r3, #64	; 0x40
 800451c:	616b      	str	r3, [r5, #20]
 800451e:	2300      	movs	r3, #0
 8004520:	9309      	str	r3, [sp, #36]	; 0x24
 8004522:	2320      	movs	r3, #32
 8004524:	f88d 3029 	strb.w	r3, [sp, #41]	; 0x29
 8004528:	2330      	movs	r3, #48	; 0x30
 800452a:	f04f 0901 	mov.w	r9, #1
 800452e:	f8cd 800c 	str.w	r8, [sp, #12]
 8004532:	f8df 81a0 	ldr.w	r8, [pc, #416]	; 80046d4 <_svfiprintf_r+0x1e8>
 8004536:	f88d 302a 	strb.w	r3, [sp, #42]	; 0x2a
 800453a:	4623      	mov	r3, r4
 800453c:	469a      	mov	sl, r3
 800453e:	f813 2b01 	ldrb.w	r2, [r3], #1
 8004542:	b10a      	cbz	r2, 8004548 <_svfiprintf_r+0x5c>
 8004544:	2a25      	cmp	r2, #37	; 0x25
 8004546:	d1f9      	bne.n	800453c <_svfiprintf_r+0x50>
 8004548:	ebba 0b04 	subs.w	fp, sl, r4
 800454c:	d00b      	beq.n	8004566 <_svfiprintf_r+0x7a>
 800454e:	465b      	mov	r3, fp
 8004550:	4622      	mov	r2, r4
 8004552:	4629      	mov	r1, r5
 8004554:	4638      	mov	r0, r7
 8004556:	f7ff ff6f 	bl	8004438 <__ssputs_r>
 800455a:	3001      	adds	r0, #1
 800455c:	f000 80a9 	beq.w	80046b2 <_svfiprintf_r+0x1c6>
 8004560:	9a09      	ldr	r2, [sp, #36]	; 0x24
 8004562:	445a      	add	r2, fp
 8004564:	9209      	str	r2, [sp, #36]	; 0x24
 8004566:	f89a 3000 	ldrb.w	r3, [sl]
 800456a:	2b00      	cmp	r3, #0
 800456c:	f000 80a1 	beq.w	80046b2 <_svfiprintf_r+0x1c6>
 8004570:	2300      	movs	r3, #0
 8004572:	f04f 32ff 	mov.w	r2, #4294967295
 8004576:	e9cd 2305 	strd	r2, r3, [sp, #20]
 800457a:	f10a 0a01 	add.w	sl, sl, #1
 800457e:	9304      	str	r3, [sp, #16]
 8004580:	9307      	str	r3, [sp, #28]
 8004582:	f88d 3053 	strb.w	r3, [sp, #83]	; 0x53
 8004586:	931a      	str	r3, [sp, #104]	; 0x68
 8004588:	4654      	mov	r4, sl
 800458a:	2205      	movs	r2, #5
 800458c:	f814 1b01 	ldrb.w	r1, [r4], #1
 8004590:	4850      	ldr	r0, [pc, #320]	; (80046d4 <_svfiprintf_r+0x1e8>)
 8004592:	f000 fd1d 	bl	8004fd0 <memchr>
 8004596:	9a04      	ldr	r2, [sp, #16]
 8004598:	b9d8      	cbnz	r0, 80045d2 <_svfiprintf_r+0xe6>
 800459a:	06d0      	lsls	r0, r2, #27
 800459c:	bf44      	itt	mi
 800459e:	2320      	movmi	r3, #32
 80045a0:	f88d 3053 	strbmi.w	r3, [sp, #83]	; 0x53
 80045a4:	0711      	lsls	r1, r2, #28
 80045a6:	bf44      	itt	mi
 80045a8:	232b      	movmi	r3, #43	; 0x2b
 80045aa:	f88d 3053 	strbmi.w	r3, [sp, #83]	; 0x53
 80045ae:	f89a 3000 	ldrb.w	r3, [sl]
 80045b2:	2b2a      	cmp	r3, #42	; 0x2a
 80045b4:	d015      	beq.n	80045e2 <_svfiprintf_r+0xf6>
 80045b6:	4654      	mov	r4, sl
 80045b8:	2000      	movs	r0, #0
 80045ba:	f04f 0c0a 	mov.w	ip, #10
 80045be:	9a07      	ldr	r2, [sp, #28]
 80045c0:	4621      	mov	r1, r4
 80045c2:	f811 3b01 	ldrb.w	r3, [r1], #1
 80045c6:	3b30      	subs	r3, #48	; 0x30
 80045c8:	2b09      	cmp	r3, #9
 80045ca:	d94d      	bls.n	8004668 <_svfiprintf_r+0x17c>
 80045cc:	b1b0      	cbz	r0, 80045fc <_svfiprintf_r+0x110>
 80045ce:	9207      	str	r2, [sp, #28]
 80045d0:	e014      	b.n	80045fc <_svfiprintf_r+0x110>
 80045d2:	eba0 0308 	sub.w	r3, r0, r8
 80045d6:	fa09 f303 	lsl.w	r3, r9, r3
 80045da:	4313      	orrs	r3, r2
 80045dc:	46a2      	mov	sl, r4
 80045de:	9304      	str	r3, [sp, #16]
 80045e0:	e7d2      	b.n	8004588 <_svfiprintf_r+0x9c>
 80045e2:	9b03      	ldr	r3, [sp, #12]
 80045e4:	1d19      	adds	r1, r3, #4
 80045e6:	681b      	ldr	r3, [r3, #0]
 80045e8:	9103      	str	r1, [sp, #12]
 80045ea:	2b00      	cmp	r3, #0
 80045ec:	bfbb      	ittet	lt
 80045ee:	425b      	neglt	r3, r3
 80045f0:	f042 0202 	orrlt.w	r2, r2, #2
 80045f4:	9307      	strge	r3, [sp, #28]
 80045f6:	9307      	strlt	r3, [sp, #28]
 80045f8:	bfb8      	it	lt
 80045fa:	9204      	strlt	r2, [sp, #16]
 80045fc:	7823      	ldrb	r3, [r4, #0]
 80045fe:	2b2e      	cmp	r3, #46	; 0x2e
 8004600:	d10c      	bne.n	800461c <_svfiprintf_r+0x130>
 8004602:	7863      	ldrb	r3, [r4, #1]
 8004604:	2b2a      	cmp	r3, #42	; 0x2a
 8004606:	d134      	bne.n	8004672 <_svfiprintf_r+0x186>
 8004608:	9b03      	ldr	r3, [sp, #12]
 800460a:	3402      	adds	r4, #2
 800460c:	1d1a      	adds	r2, r3, #4
 800460e:	681b      	ldr	r3, [r3, #0]
 8004610:	9203      	str	r2, [sp, #12]
 8004612:	2b00      	cmp	r3, #0
 8004614:	bfb8      	it	lt
 8004616:	f04f 33ff 	movlt.w	r3, #4294967295
 800461a:	9305      	str	r3, [sp, #20]
 800461c:	f8df a0b8 	ldr.w	sl, [pc, #184]	; 80046d8 <_svfiprintf_r+0x1ec>
 8004620:	2203      	movs	r2, #3
 8004622:	4650      	mov	r0, sl
 8004624:	7821      	ldrb	r1, [r4, #0]
 8004626:	f000 fcd3 	bl	8004fd0 <memchr>
 800462a:	b138      	cbz	r0, 800463c <_svfiprintf_r+0x150>
 800462c:	2240      	movs	r2, #64	; 0x40
 800462e:	9b04      	ldr	r3, [sp, #16]
 8004630:	eba0 000a 	sub.w	r0, r0, sl
 8004634:	4082      	lsls	r2, r0
 8004636:	4313      	orrs	r3, r2
 8004638:	3401      	adds	r4, #1
 800463a:	9304      	str	r3, [sp, #16]
 800463c:	f814 1b01 	ldrb.w	r1, [r4], #1
 8004640:	2206      	movs	r2, #6
 8004642:	4826      	ldr	r0, [pc, #152]	; (80046dc <_svfiprintf_r+0x1f0>)
 8004644:	f88d 1028 	strb.w	r1, [sp, #40]	; 0x28
 8004648:	f000 fcc2 	bl	8004fd0 <memchr>
 800464c:	2800      	cmp	r0, #0
 800464e:	d038      	beq.n	80046c2 <_svfiprintf_r+0x1d6>
 8004650:	4b23      	ldr	r3, [pc, #140]	; (80046e0 <_svfiprintf_r+0x1f4>)
 8004652:	bb1b      	cbnz	r3, 800469c <_svfiprintf_r+0x1b0>
 8004654:	9b03      	ldr	r3, [sp, #12]
 8004656:	3307      	adds	r3, #7
 8004658:	f023 0307 	bic.w	r3, r3, #7
 800465c:	3308      	adds	r3, #8
 800465e:	9303      	str	r3, [sp, #12]
 8004660:	9b09      	ldr	r3, [sp, #36]	; 0x24
 8004662:	4433      	add	r3, r6
 8004664:	9309      	str	r3, [sp, #36]	; 0x24
 8004666:	e768      	b.n	800453a <_svfiprintf_r+0x4e>
 8004668:	460c      	mov	r4, r1
 800466a:	2001      	movs	r0, #1
 800466c:	fb0c 3202 	mla	r2, ip, r2, r3
 8004670:	e7a6      	b.n	80045c0 <_svfiprintf_r+0xd4>
 8004672:	2300      	movs	r3, #0
 8004674:	f04f 0c0a 	mov.w	ip, #10
 8004678:	4619      	mov	r1, r3
 800467a:	3401      	adds	r4, #1
 800467c:	9305      	str	r3, [sp, #20]
 800467e:	4620      	mov	r0, r4
 8004680:	f810 2b01 	ldrb.w	r2, [r0], #1
 8004684:	3a30      	subs	r2, #48	; 0x30
 8004686:	2a09      	cmp	r2, #9
 8004688:	d903      	bls.n	8004692 <_svfiprintf_r+0x1a6>
 800468a:	2b00      	cmp	r3, #0
 800468c:	d0c6      	beq.n	800461c <_svfiprintf_r+0x130>
 800468e:	9105      	str	r1, [sp, #20]
 8004690:	e7c4      	b.n	800461c <_svfiprintf_r+0x130>
 8004692:	4604      	mov	r4, r0
 8004694:	2301      	movs	r3, #1
 8004696:	fb0c 2101 	mla	r1, ip, r1, r2
 800469a:	e7f0      	b.n	800467e <_svfiprintf_r+0x192>
 800469c:	ab03      	add	r3, sp, #12
 800469e:	9300      	str	r3, [sp, #0]
 80046a0:	462a      	mov	r2, r5
 80046a2:	4638      	mov	r0, r7
 80046a4:	4b0f      	ldr	r3, [pc, #60]	; (80046e4 <_svfiprintf_r+0x1f8>)
 80046a6:	a904      	add	r1, sp, #16
 80046a8:	f3af 8000 	nop.w
 80046ac:	1c42      	adds	r2, r0, #1
 80046ae:	4606      	mov	r6, r0
 80046b0:	d1d6      	bne.n	8004660 <_svfiprintf_r+0x174>
 80046b2:	89ab      	ldrh	r3, [r5, #12]
 80046b4:	065b      	lsls	r3, r3, #25
 80046b6:	f53f af2d 	bmi.w	8004514 <_svfiprintf_r+0x28>
 80046ba:	9809      	ldr	r0, [sp, #36]	; 0x24
 80046bc:	b01d      	add	sp, #116	; 0x74
 80046be:	e8bd 8ff0 	ldmia.w	sp!, {r4, r5, r6, r7, r8, r9, sl, fp, pc}
 80046c2:	ab03      	add	r3, sp, #12
 80046c4:	9300      	str	r3, [sp, #0]
 80046c6:	462a      	mov	r2, r5
 80046c8:	4638      	mov	r0, r7
 80046ca:	4b06      	ldr	r3, [pc, #24]	; (80046e4 <_svfiprintf_r+0x1f8>)
 80046cc:	a904      	add	r1, sp, #16
 80046ce:	f000 f9bf 	bl	8004a50 <_printf_i>
 80046d2:	e7eb      	b.n	80046ac <_svfiprintf_r+0x1c0>
 80046d4:	08005250 	.word	0x08005250
 80046d8:	08005256 	.word	0x08005256
 80046dc:	0800525a 	.word	0x0800525a
 80046e0:	00000000 	.word	0x00000000
 80046e4:	08004439 	.word	0x08004439

080046e8 <__sfputc_r>:
 80046e8:	6893      	ldr	r3, [r2, #8]
 80046ea:	b410      	push	{r4}
 80046ec:	3b01      	subs	r3, #1
 80046ee:	2b00      	cmp	r3, #0
 80046f0:	6093      	str	r3, [r2, #8]
 80046f2:	da07      	bge.n	8004704 <__sfputc_r+0x1c>
 80046f4:	6994      	ldr	r4, [r2, #24]
 80046f6:	42a3      	cmp	r3, r4
 80046f8:	db01      	blt.n	80046fe <__sfputc_r+0x16>
 80046fa:	290a      	cmp	r1, #10
 80046fc:	d102      	bne.n	8004704 <__sfputc_r+0x1c>
 80046fe:	bc10      	pop	{r4}
 8004700:	f000 bba6 	b.w	8004e50 <__swbuf_r>
 8004704:	6813      	ldr	r3, [r2, #0]
 8004706:	1c58      	adds	r0, r3, #1
 8004708:	6010      	str	r0, [r2, #0]
 800470a:	7019      	strb	r1, [r3, #0]
 800470c:	4608      	mov	r0, r1
 800470e:	bc10      	pop	{r4}
 8004710:	4770      	bx	lr

08004712 <__sfputs_r>:
 8004712:	b5f8      	push	{r3, r4, r5, r6, r7, lr}
 8004714:	4606      	mov	r6, r0
 8004716:	460f      	mov	r7, r1
 8004718:	4614      	mov	r4, r2
 800471a:	18d5      	adds	r5, r2, r3
 800471c:	42ac      	cmp	r4, r5
 800471e:	d101      	bne.n	8004724 <__sfputs_r+0x12>
 8004720:	2000      	movs	r0, #0
 8004722:	e007      	b.n	8004734 <__sfputs_r+0x22>
 8004724:	463a      	mov	r2, r7
 8004726:	4630      	mov	r0, r6
 8004728:	f814 1b01 	ldrb.w	r1, [r4], #1
 800472c:	f7ff ffdc 	bl	80046e8 <__sfputc_r>
 8004730:	1c43      	adds	r3, r0, #1
 8004732:	d1f3      	bne.n	800471c <__sfputs_r+0xa>
 8004734:	bdf8      	pop	{r3, r4, r5, r6, r7, pc}
	...

08004738 <_vfiprintf_r>:
 8004738:	e92d 4ff0 	stmdb	sp!, {r4, r5, r6, r7, r8, r9, sl, fp, lr}
 800473c:	460d      	mov	r5, r1
 800473e:	4614      	mov	r4, r2
 8004740:	4698      	mov	r8, r3
 8004742:	4606      	mov	r6, r0
 8004744:	b09d      	sub	sp, #116	; 0x74
 8004746:	b118      	cbz	r0, 8004750 <_vfiprintf_r+0x18>
 8004748:	6a03      	ldr	r3, [r0, #32]
 800474a:	b90b      	cbnz	r3, 8004750 <_vfiprintf_r+0x18>
 800474c:	f7ff fc42 	bl	8003fd4 <__sinit>
 8004750:	6e6b      	ldr	r3, [r5, #100]	; 0x64
 8004752:	07d9      	lsls	r1, r3, #31
 8004754:	d405      	bmi.n	8004762 <_vfiprintf_r+0x2a>
 8004756:	89ab      	ldrh	r3, [r5, #12]
 8004758:	059a      	lsls	r2, r3, #22
 800475a:	d402      	bmi.n	8004762 <_vfiprintf_r+0x2a>
 800475c:	6da8      	ldr	r0, [r5, #88]	; 0x58
 800475e:	f7ff fd66 	bl	800422e <__retarget_lock_acquire_recursive>
 8004762:	89ab      	ldrh	r3, [r5, #12]
 8004764:	071b      	lsls	r3, r3, #28
 8004766:	d501      	bpl.n	800476c <_vfiprintf_r+0x34>
 8004768:	692b      	ldr	r3, [r5, #16]
 800476a:	b99b      	cbnz	r3, 8004794 <_vfiprintf_r+0x5c>
 800476c:	4629      	mov	r1, r5
 800476e:	4630      	mov	r0, r6
 8004770:	f000 fbac 	bl	8004ecc <__swsetup_r>
 8004774:	b170      	cbz	r0, 8004794 <_vfiprintf_r+0x5c>
 8004776:	6e6b      	ldr	r3, [r5, #100]	; 0x64
 8004778:	07dc      	lsls	r4, r3, #31
 800477a:	d504      	bpl.n	8004786 <_vfiprintf_r+0x4e>
 800477c:	f04f 30ff 	mov.w	r0, #4294967295
 8004780:	b01d      	add	sp, #116	; 0x74
 8004782:	e8bd 8ff0 	ldmia.w	sp!, {r4, r5, r6, r7, r8, r9, sl, fp, pc}
 8004786:	89ab      	ldrh	r3, [r5, #12]
 8004788:	0598      	lsls	r0, r3, #22
 800478a:	d4f7      	bmi.n	800477c <_vfiprintf_r+0x44>
 800478c:	6da8      	ldr	r0, [r5, #88]	; 0x58
 800478e:	f7ff fd4f 	bl	8004230 <__retarget_lock_release_recursive>
 8004792:	e7f3      	b.n	800477c <_vfiprintf_r+0x44>
 8004794:	2300      	movs	r3, #0
 8004796:	9309      	str	r3, [sp, #36]	; 0x24
 8004798:	2320      	movs	r3, #32
 800479a:	f88d 3029 	strb.w	r3, [sp, #41]	; 0x29
 800479e:	2330      	movs	r3, #48	; 0x30
 80047a0:	f04f 0901 	mov.w	r9, #1
 80047a4:	f8cd 800c 	str.w	r8, [sp, #12]
 80047a8:	f8df 81ac 	ldr.w	r8, [pc, #428]	; 8004958 <_vfiprintf_r+0x220>
 80047ac:	f88d 302a 	strb.w	r3, [sp, #42]	; 0x2a
 80047b0:	4623      	mov	r3, r4
 80047b2:	469a      	mov	sl, r3
 80047b4:	f813 2b01 	ldrb.w	r2, [r3], #1
 80047b8:	b10a      	cbz	r2, 80047be <_vfiprintf_r+0x86>
 80047ba:	2a25      	cmp	r2, #37	; 0x25
 80047bc:	d1f9      	bne.n	80047b2 <_vfiprintf_r+0x7a>
 80047be:	ebba 0b04 	subs.w	fp, sl, r4
 80047c2:	d00b      	beq.n	80047dc <_vfiprintf_r+0xa4>
 80047c4:	465b      	mov	r3, fp
 80047c6:	4622      	mov	r2, r4
 80047c8:	4629      	mov	r1, r5
 80047ca:	4630      	mov	r0, r6
 80047cc:	f7ff ffa1 	bl	8004712 <__sfputs_r>
 80047d0:	3001      	adds	r0, #1
 80047d2:	f000 80a9 	beq.w	8004928 <_vfiprintf_r+0x1f0>
 80047d6:	9a09      	ldr	r2, [sp, #36]	; 0x24
 80047d8:	445a      	add	r2, fp
 80047da:	9209      	str	r2, [sp, #36]	; 0x24
 80047dc:	f89a 3000 	ldrb.w	r3, [sl]
 80047e0:	2b00      	cmp	r3, #0
 80047e2:	f000 80a1 	beq.w	8004928 <_vfiprintf_r+0x1f0>
 80047e6:	2300      	movs	r3, #0
 80047e8:	f04f 32ff 	mov.w	r2, #4294967295
 80047ec:	e9cd 2305 	strd	r2, r3, [sp, #20]
 80047f0:	f10a 0a01 	add.w	sl, sl, #1
 80047f4:	9304      	str	r3, [sp, #16]
 80047f6:	9307      	str	r3, [sp, #28]
 80047f8:	f88d 3053 	strb.w	r3, [sp, #83]	; 0x53
 80047fc:	931a      	str	r3, [sp, #104]	; 0x68
 80047fe:	4654      	mov	r4, sl
 8004800:	2205      	movs	r2, #5
 8004802:	f814 1b01 	ldrb.w	r1, [r4], #1
 8004806:	4854      	ldr	r0, [pc, #336]	; (8004958 <_vfiprintf_r+0x220>)
 8004808:	f000 fbe2 	bl	8004fd0 <memchr>
 800480c:	9a04      	ldr	r2, [sp, #16]
 800480e:	b9d8      	cbnz	r0, 8004848 <_vfiprintf_r+0x110>
 8004810:	06d1      	lsls	r1, r2, #27
 8004812:	bf44      	itt	mi
 8004814:	2320      	movmi	r3, #32
 8004816:	f88d 3053 	strbmi.w	r3, [sp, #83]	; 0x53
 800481a:	0713      	lsls	r3, r2, #28
 800481c:	bf44      	itt	mi
 800481e:	232b      	movmi	r3, #43	; 0x2b
 8004820:	f88d 3053 	strbmi.w	r3, [sp, #83]	; 0x53
 8004824:	f89a 3000 	ldrb.w	r3, [sl]
 8004828:	2b2a      	cmp	r3, #42	; 0x2a
 800482a:	d015      	beq.n	8004858 <_vfiprintf_r+0x120>
 800482c:	4654      	mov	r4, sl
 800482e:	2000      	movs	r0, #0
 8004830:	f04f 0c0a 	mov.w	ip, #10
 8004834:	9a07      	ldr	r2, [sp, #28]
 8004836:	4621      	mov	r1, r4
 8004838:	f811 3b01 	ldrb.w	r3, [r1], #1
 800483c:	3b30      	subs	r3, #48	; 0x30
 800483e:	2b09      	cmp	r3, #9
 8004840:	d94d      	bls.n	80048de <_vfiprintf_r+0x1a6>
 8004842:	b1b0      	cbz	r0, 8004872 <_vfiprintf_r+0x13a>
 8004844:	9207      	str	r2, [sp, #28]
 8004846:	e014      	b.n	8004872 <_vfiprintf_r+0x13a>
 8004848:	eba0 0308 	sub.w	r3, r0, r8
 800484c:	fa09 f303 	lsl.w	r3, r9, r3
 8004850:	4313      	orrs	r3, r2
 8004852:	46a2      	mov	sl, r4
 8004854:	9304      	str	r3, [sp, #16]
 8004856:	e7d2      	b.n	80047fe <_vfiprintf_r+0xc6>
 8004858:	9b03      	ldr	r3, [sp, #12]
 800485a:	1d19      	adds	r1, r3, #4
 800485c:	681b      	ldr	r3, [r3, #0]
 800485e:	9103      	str	r1, [sp, #12]
 8004860:	2b00      	cmp	r3, #0
 8004862:	bfbb      	ittet	lt
 8004864:	425b      	neglt	r3, r3
 8004866:	f042 0202 	orrlt.w	r2, r2, #2
 800486a:	9307      	strge	r3, [sp, #28]
 800486c:	9307      	strlt	r3, [sp, #28]
 800486e:	bfb8      	it	lt
 8004870:	9204      	strlt	r2, [sp, #16]
 8004872:	7823      	ldrb	r3, [r4, #0]
 8004874:	2b2e      	cmp	r3, #46	; 0x2e
 8004876:	d10c      	bne.n	8004892 <_vfiprintf_r+0x15a>
 8004878:	7863      	ldrb	r3, [r4, #1]
 800487a:	2b2a      	cmp	r3, #42	; 0x2a
 800487c:	d134      	bne.n	80048e8 <_vfiprintf_r+0x1b0>
 800487e:	9b03      	ldr	r3, [sp, #12]
 8004880:	3402      	adds	r4, #2
 8004882:	1d1a      	adds	r2, r3, #4
 8004884:	681b      	ldr	r3, [r3, #0]
 8004886:	9203      	str	r2, [sp, #12]
 8004888:	2b00      	cmp	r3, #0
 800488a:	bfb8      	it	lt
 800488c:	f04f 33ff 	movlt.w	r3, #4294967295
 8004890:	9305      	str	r3, [sp, #20]
 8004892:	f8df a0c8 	ldr.w	sl, [pc, #200]	; 800495c <_vfiprintf_r+0x224>
 8004896:	2203      	movs	r2, #3
 8004898:	4650      	mov	r0, sl
 800489a:	7821      	ldrb	r1, [r4, #0]
 800489c:	f000 fb98 	bl	8004fd0 <memchr>
 80048a0:	b138      	cbz	r0, 80048b2 <_vfiprintf_r+0x17a>
 80048a2:	2240      	movs	r2, #64	; 0x40
 80048a4:	9b04      	ldr	r3, [sp, #16]
 80048a6:	eba0 000a 	sub.w	r0, r0, sl
 80048aa:	4082      	lsls	r2, r0
 80048ac:	4313      	orrs	r3, r2
 80048ae:	3401      	adds	r4, #1
 80048b0:	9304      	str	r3, [sp, #16]
 80048b2:	f814 1b01 	ldrb.w	r1, [r4], #1
 80048b6:	2206      	movs	r2, #6
 80048b8:	4829      	ldr	r0, [pc, #164]	; (8004960 <_vfiprintf_r+0x228>)
 80048ba:	f88d 1028 	strb.w	r1, [sp, #40]	; 0x28
 80048be:	f000 fb87 	bl	8004fd0 <memchr>
 80048c2:	2800      	cmp	r0, #0
 80048c4:	d03f      	beq.n	8004946 <_vfiprintf_r+0x20e>
 80048c6:	4b27      	ldr	r3, [pc, #156]	; (8004964 <_vfiprintf_r+0x22c>)
 80048c8:	bb1b      	cbnz	r3, 8004912 <_vfiprintf_r+0x1da>
 80048ca:	9b03      	ldr	r3, [sp, #12]
 80048cc:	3307      	adds	r3, #7
 80048ce:	f023 0307 	bic.w	r3, r3, #7
 80048d2:	3308      	adds	r3, #8
 80048d4:	9303      	str	r3, [sp, #12]
 80048d6:	9b09      	ldr	r3, [sp, #36]	; 0x24
 80048d8:	443b      	add	r3, r7
 80048da:	9309      	str	r3, [sp, #36]	; 0x24
 80048dc:	e768      	b.n	80047b0 <_vfiprintf_r+0x78>
 80048de:	460c      	mov	r4, r1
 80048e0:	2001      	movs	r0, #1
 80048e2:	fb0c 3202 	mla	r2, ip, r2, r3
 80048e6:	e7a6      	b.n	8004836 <_vfiprintf_r+0xfe>
 80048e8:	2300      	movs	r3, #0
 80048ea:	f04f 0c0a 	mov.w	ip, #10
 80048ee:	4619      	mov	r1, r3
 80048f0:	3401      	adds	r4, #1
 80048f2:	9305      	str	r3, [sp, #20]
 80048f4:	4620      	mov	r0, r4
 80048f6:	f810 2b01 	ldrb.w	r2, [r0], #1
 80048fa:	3a30      	subs	r2, #48	; 0x30
 80048fc:	2a09      	cmp	r2, #9
 80048fe:	d903      	bls.n	8004908 <_vfiprintf_r+0x1d0>
 8004900:	2b00      	cmp	r3, #0
 8004902:	d0c6      	beq.n	8004892 <_vfiprintf_r+0x15a>
 8004904:	9105      	str	r1, [sp, #20]
 8004906:	e7c4      	b.n	8004892 <_vfiprintf_r+0x15a>
 8004908:	4604      	mov	r4, r0
 800490a:	2301      	movs	r3, #1
 800490c:	fb0c 2101 	mla	r1, ip, r1, r2
 8004910:	e7f0      	b.n	80048f4 <_vfiprintf_r+0x1bc>
 8004912:	ab03      	add	r3, sp, #12
 8004914:	9300      	str	r3, [sp, #0]
 8004916:	462a      	mov	r2, r5
 8004918:	4630      	mov	r0, r6
 800491a:	4b13      	ldr	r3, [pc, #76]	; (8004968 <_vfiprintf_r+0x230>)
 800491c:	a904      	add	r1, sp, #16
 800491e:	f3af 8000 	nop.w
 8004922:	4607      	mov	r7, r0
 8004924:	1c78      	adds	r0, r7, #1
 8004926:	d1d6      	bne.n	80048d6 <_vfiprintf_r+0x19e>
 8004928:	6e6b      	ldr	r3, [r5, #100]	; 0x64
 800492a:	07d9      	lsls	r1, r3, #31
 800492c:	d405      	bmi.n	800493a <_vfiprintf_r+0x202>
 800492e:	89ab      	ldrh	r3, [r5, #12]
 8004930:	059a      	lsls	r2, r3, #22
 8004932:	d402      	bmi.n	800493a <_vfiprintf_r+0x202>
 8004934:	6da8      	ldr	r0, [r5, #88]	; 0x58
 8004936:	f7ff fc7b 	bl	8004230 <__retarget_lock_release_recursive>
 800493a:	89ab      	ldrh	r3, [r5, #12]
 800493c:	065b      	lsls	r3, r3, #25
 800493e:	f53f af1d 	bmi.w	800477c <_vfiprintf_r+0x44>
 8004942:	9809      	ldr	r0, [sp, #36]	; 0x24
 8004944:	e71c      	b.n	8004780 <_vfiprintf_r+0x48>
 8004946:	ab03      	add	r3, sp, #12
 8004948:	9300      	str	r3, [sp, #0]
 800494a:	462a      	mov	r2, r5
 800494c:	4630      	mov	r0, r6
 800494e:	4b06      	ldr	r3, [pc, #24]	; (8004968 <_vfiprintf_r+0x230>)
 8004950:	a904      	add	r1, sp, #16
 8004952:	f000 f87d 	bl	8004a50 <_printf_i>
 8004956:	e7e4      	b.n	8004922 <_vfiprintf_r+0x1ea>
 8004958:	08005250 	.word	0x08005250
 800495c:	08005256 	.word	0x08005256
 8004960:	0800525a 	.word	0x0800525a
 8004964:	00000000 	.word	0x00000000
 8004968:	08004713 	.word	0x08004713

0800496c <_printf_common>:
 800496c:	e92d 47f0 	stmdb	sp!, {r4, r5, r6, r7, r8, r9, sl, lr}
 8004970:	4616      	mov	r6, r2
 8004972:	4699      	mov	r9, r3
 8004974:	688a      	ldr	r2, [r1, #8]
 8004976:	690b      	ldr	r3, [r1, #16]
 8004978:	4607      	mov	r7, r0
 800497a:	4293      	cmp	r3, r2
 800497c:	bfb8      	it	lt
 800497e:	4613      	movlt	r3, r2
 8004980:	6033      	str	r3, [r6, #0]
 8004982:	f891 2043 	ldrb.w	r2, [r1, #67]	; 0x43
 8004986:	460c      	mov	r4, r1
 8004988:	f8dd 8020 	ldr.w	r8, [sp, #32]
 800498c:	b10a      	cbz	r2, 8004992 <_printf_common+0x26>
 800498e:	3301      	adds	r3, #1
 8004990:	6033      	str	r3, [r6, #0]
 8004992:	6823      	ldr	r3, [r4, #0]
 8004994:	0699      	lsls	r1, r3, #26
 8004996:	bf42      	ittt	mi
 8004998:	6833      	ldrmi	r3, [r6, #0]
 800499a:	3302      	addmi	r3, #2
 800499c:	6033      	strmi	r3, [r6, #0]
 800499e:	6825      	ldr	r5, [r4, #0]
 80049a0:	f015 0506 	ands.w	r5, r5, #6
 80049a4:	d106      	bne.n	80049b4 <_printf_common+0x48>
 80049a6:	f104 0a19 	add.w	sl, r4, #25
 80049aa:	68e3      	ldr	r3, [r4, #12]
 80049ac:	6832      	ldr	r2, [r6, #0]
 80049ae:	1a9b      	subs	r3, r3, r2
 80049b0:	42ab      	cmp	r3, r5
 80049b2:	dc2b      	bgt.n	8004a0c <_printf_common+0xa0>
 80049b4:	f894 2043 	ldrb.w	r2, [r4, #67]	; 0x43
 80049b8:	1e13      	subs	r3, r2, #0
 80049ba:	6822      	ldr	r2, [r4, #0]
 80049bc:	bf18      	it	ne
 80049be:	2301      	movne	r3, #1
 80049c0:	0692      	lsls	r2, r2, #26
 80049c2:	d430      	bmi.n	8004a26 <_printf_common+0xba>
 80049c4:	4649      	mov	r1, r9
 80049c6:	4638      	mov	r0, r7
 80049c8:	f104 0243 	add.w	r2, r4, #67	; 0x43
 80049cc:	47c0      	blx	r8
 80049ce:	3001      	adds	r0, #1
 80049d0:	d023      	beq.n	8004a1a <_printf_common+0xae>
 80049d2:	6823      	ldr	r3, [r4, #0]
 80049d4:	6922      	ldr	r2, [r4, #16]
 80049d6:	f003 0306 	and.w	r3, r3, #6
 80049da:	2b04      	cmp	r3, #4
 80049dc:	bf14      	ite	ne
 80049de:	2500      	movne	r5, #0
 80049e0:	6833      	ldreq	r3, [r6, #0]
 80049e2:	f04f 0600 	mov.w	r6, #0
 80049e6:	bf08      	it	eq
 80049e8:	68e5      	ldreq	r5, [r4, #12]
 80049ea:	f104 041a 	add.w	r4, r4, #26
 80049ee:	bf08      	it	eq
 80049f0:	1aed      	subeq	r5, r5, r3
 80049f2:	f854 3c12 	ldr.w	r3, [r4, #-18]
 80049f6:	bf08      	it	eq
 80049f8:	ea25 75e5 	biceq.w	r5, r5, r5, asr #31
 80049fc:	4293      	cmp	r3, r2
 80049fe:	bfc4      	itt	gt
 8004a00:	1a9b      	subgt	r3, r3, r2
 8004a02:	18ed      	addgt	r5, r5, r3
 8004a04:	42b5      	cmp	r5, r6
 8004a06:	d11a      	bne.n	8004a3e <_printf_common+0xd2>
 8004a08:	2000      	movs	r0, #0
 8004a0a:	e008      	b.n	8004a1e <_printf_common+0xb2>
 8004a0c:	2301      	movs	r3, #1
 8004a0e:	4652      	mov	r2, sl
 8004a10:	4649      	mov	r1, r9
 8004a12:	4638      	mov	r0, r7
 8004a14:	47c0      	blx	r8
 8004a16:	3001      	adds	r0, #1
 8004a18:	d103      	bne.n	8004a22 <_printf_common+0xb6>
 8004a1a:	f04f 30ff 	mov.w	r0, #4294967295
 8004a1e:	e8bd 87f0 	ldmia.w	sp!, {r4, r5, r6, r7, r8, r9, sl, pc}
 8004a22:	3501      	adds	r5, #1
 8004a24:	e7c1      	b.n	80049aa <_printf_common+0x3e>
 8004a26:	2030      	movs	r0, #48	; 0x30
 8004a28:	18e1      	adds	r1, r4, r3
 8004a2a:	f881 0043 	strb.w	r0, [r1, #67]	; 0x43
 8004a2e:	1c5a      	adds	r2, r3, #1
 8004a30:	f894 1045 	ldrb.w	r1, [r4, #69]	; 0x45
 8004a34:	4422      	add	r2, r4
 8004a36:	3302      	adds	r3, #2
 8004a38:	f882 1043 	strb.w	r1, [r2, #67]	; 0x43
 8004a3c:	e7c2      	b.n	80049c4 <_printf_common+0x58>
 8004a3e:	2301      	movs	r3, #1
 8004a40:	4622      	mov	r2, r4
 8004a42:	4649      	mov	r1, r9
 8004a44:	4638      	mov	r0, r7
 8004a46:	47c0      	blx	r8
 8004a48:	3001      	adds	r0, #1
 8004a4a:	d0e6      	beq.n	8004a1a <_printf_common+0xae>
 8004a4c:	3601      	adds	r6, #1
 8004a4e:	e7d9      	b.n	8004a04 <_printf_common+0x98>

08004a50 <_printf_i>:
 8004a50:	e92d 47ff 	stmdb	sp!, {r0, r1, r2, r3, r4, r5, r6, r7, r8, r9, sl, lr}
 8004a54:	7e0f      	ldrb	r7, [r1, #24]
 8004a56:	4691      	mov	r9, r2
 8004a58:	2f78      	cmp	r7, #120	; 0x78
 8004a5a:	4680      	mov	r8, r0
 8004a5c:	460c      	mov	r4, r1
 8004a5e:	469a      	mov	sl, r3
 8004a60:	9d0c      	ldr	r5, [sp, #48]	; 0x30
 8004a62:	f101 0243 	add.w	r2, r1, #67	; 0x43
 8004a66:	d807      	bhi.n	8004a78 <_printf_i+0x28>
 8004a68:	2f62      	cmp	r7, #98	; 0x62
 8004a6a:	d80a      	bhi.n	8004a82 <_printf_i+0x32>
 8004a6c:	2f00      	cmp	r7, #0
 8004a6e:	f000 80d5 	beq.w	8004c1c <_printf_i+0x1cc>
 8004a72:	2f58      	cmp	r7, #88	; 0x58
 8004a74:	f000 80c1 	beq.w	8004bfa <_printf_i+0x1aa>
 8004a78:	f104 0542 	add.w	r5, r4, #66	; 0x42
 8004a7c:	f884 7042 	strb.w	r7, [r4, #66]	; 0x42
 8004a80:	e03a      	b.n	8004af8 <_printf_i+0xa8>
 8004a82:	f1a7 0363 	sub.w	r3, r7, #99	; 0x63
 8004a86:	2b15      	cmp	r3, #21
 8004a88:	d8f6      	bhi.n	8004a78 <_printf_i+0x28>
 8004a8a:	a101      	add	r1, pc, #4	; (adr r1, 8004a90 <_printf_i+0x40>)
 8004a8c:	f851 f023 	ldr.w	pc, [r1, r3, lsl #2]
 8004a90:	08004ae9 	.word	0x08004ae9
 8004a94:	08004afd 	.word	0x08004afd
 8004a98:	08004a79 	.word	0x08004a79
 8004a9c:	08004a79 	.word	0x08004a79
 8004aa0:	08004a79 	.word	0x08004a79
 8004aa4:	08004a79 	.word	0x08004a79
 8004aa8:	08004afd 	.word	0x08004afd
 8004aac:	08004a79 	.word	0x08004a79
 8004ab0:	08004a79 	.word	0x08004a79
 8004ab4:	08004a79 	.word	0x08004a79
 8004ab8:	08004a79 	.word	0x08004a79
 8004abc:	08004c03 	.word	0x08004c03
 8004ac0:	08004b29 	.word	0x08004b29
 8004ac4:	08004bbd 	.word	0x08004bbd
 8004ac8:	08004a79 	.word	0x08004a79
 8004acc:	08004a79 	.word	0x08004a79
 8004ad0:	08004c25 	.word	0x08004c25
 8004ad4:	08004a79 	.word	0x08004a79
 8004ad8:	08004b29 	.word	0x08004b29
 8004adc:	08004a79 	.word	0x08004a79
 8004ae0:	08004a79 	.word	0x08004a79
 8004ae4:	08004bc5 	.word	0x08004bc5
 8004ae8:	682b      	ldr	r3, [r5, #0]
 8004aea:	1d1a      	adds	r2, r3, #4
 8004aec:	681b      	ldr	r3, [r3, #0]
 8004aee:	602a      	str	r2, [r5, #0]
 8004af0:	f104 0542 	add.w	r5, r4, #66	; 0x42
 8004af4:	f884 3042 	strb.w	r3, [r4, #66]	; 0x42
 8004af8:	2301      	movs	r3, #1
 8004afa:	e0a0      	b.n	8004c3e <_printf_i+0x1ee>
 8004afc:	6820      	ldr	r0, [r4, #0]
 8004afe:	682b      	ldr	r3, [r5, #0]
 8004b00:	0607      	lsls	r7, r0, #24
 8004b02:	f103 0104 	add.w	r1, r3, #4
 8004b06:	6029      	str	r1, [r5, #0]
 8004b08:	d501      	bpl.n	8004b0e <_printf_i+0xbe>
 8004b0a:	681e      	ldr	r6, [r3, #0]
 8004b0c:	e003      	b.n	8004b16 <_printf_i+0xc6>
 8004b0e:	0646      	lsls	r6, r0, #25
 8004b10:	d5fb      	bpl.n	8004b0a <_printf_i+0xba>
 8004b12:	f9b3 6000 	ldrsh.w	r6, [r3]
 8004b16:	2e00      	cmp	r6, #0
 8004b18:	da03      	bge.n	8004b22 <_printf_i+0xd2>
 8004b1a:	232d      	movs	r3, #45	; 0x2d
 8004b1c:	4276      	negs	r6, r6
 8004b1e:	f884 3043 	strb.w	r3, [r4, #67]	; 0x43
 8004b22:	230a      	movs	r3, #10
 8004b24:	4859      	ldr	r0, [pc, #356]	; (8004c8c <_printf_i+0x23c>)
 8004b26:	e012      	b.n	8004b4e <_printf_i+0xfe>
 8004b28:	682b      	ldr	r3, [r5, #0]
 8004b2a:	6820      	ldr	r0, [r4, #0]
 8004b2c:	1d19      	adds	r1, r3, #4
 8004b2e:	6029      	str	r1, [r5, #0]
 8004b30:	0605      	lsls	r5, r0, #24
 8004b32:	d501      	bpl.n	8004b38 <_printf_i+0xe8>
 8004b34:	681e      	ldr	r6, [r3, #0]
 8004b36:	e002      	b.n	8004b3e <_printf_i+0xee>
 8004b38:	0641      	lsls	r1, r0, #25
 8004b3a:	d5fb      	bpl.n	8004b34 <_printf_i+0xe4>
 8004b3c:	881e      	ldrh	r6, [r3, #0]
 8004b3e:	2f6f      	cmp	r7, #111	; 0x6f
 8004b40:	bf0c      	ite	eq
 8004b42:	2308      	moveq	r3, #8
 8004b44:	230a      	movne	r3, #10
 8004b46:	4851      	ldr	r0, [pc, #324]	; (8004c8c <_printf_i+0x23c>)
 8004b48:	2100      	movs	r1, #0
 8004b4a:	f884 1043 	strb.w	r1, [r4, #67]	; 0x43
 8004b4e:	6865      	ldr	r5, [r4, #4]
 8004b50:	2d00      	cmp	r5, #0
 8004b52:	bfa8      	it	ge
 8004b54:	6821      	ldrge	r1, [r4, #0]
 8004b56:	60a5      	str	r5, [r4, #8]
 8004b58:	bfa4      	itt	ge
 8004b5a:	f021 0104 	bicge.w	r1, r1, #4
 8004b5e:	6021      	strge	r1, [r4, #0]
 8004b60:	b90e      	cbnz	r6, 8004b66 <_printf_i+0x116>
 8004b62:	2d00      	cmp	r5, #0
 8004b64:	d04b      	beq.n	8004bfe <_printf_i+0x1ae>
 8004b66:	4615      	mov	r5, r2
 8004b68:	fbb6 f1f3 	udiv	r1, r6, r3
 8004b6c:	fb03 6711 	mls	r7, r3, r1, r6
 8004b70:	5dc7      	ldrb	r7, [r0, r7]
 8004b72:	f805 7d01 	strb.w	r7, [r5, #-1]!
 8004b76:	4637      	mov	r7, r6
 8004b78:	42bb      	cmp	r3, r7
 8004b7a:	460e      	mov	r6, r1
 8004b7c:	d9f4      	bls.n	8004b68 <_printf_i+0x118>
 8004b7e:	2b08      	cmp	r3, #8
 8004b80:	d10b      	bne.n	8004b9a <_printf_i+0x14a>
 8004b82:	6823      	ldr	r3, [r4, #0]
 8004b84:	07de      	lsls	r6, r3, #31
 8004b86:	d508      	bpl.n	8004b9a <_printf_i+0x14a>
 8004b88:	6923      	ldr	r3, [r4, #16]
 8004b8a:	6861      	ldr	r1, [r4, #4]
 8004b8c:	4299      	cmp	r1, r3
 8004b8e:	bfde      	ittt	le
 8004b90:	2330      	movle	r3, #48	; 0x30
 8004b92:	f805 3c01 	strble.w	r3, [r5, #-1]
 8004b96:	f105 35ff 	addle.w	r5, r5, #4294967295
 8004b9a:	1b52      	subs	r2, r2, r5
 8004b9c:	6122      	str	r2, [r4, #16]
 8004b9e:	464b      	mov	r3, r9
 8004ba0:	4621      	mov	r1, r4
 8004ba2:	4640      	mov	r0, r8
 8004ba4:	f8cd a000 	str.w	sl, [sp]
 8004ba8:	aa03      	add	r2, sp, #12
 8004baa:	f7ff fedf 	bl	800496c <_printf_common>
 8004bae:	3001      	adds	r0, #1
 8004bb0:	d14a      	bne.n	8004c48 <_printf_i+0x1f8>
 8004bb2:	f04f 30ff 	mov.w	r0, #4294967295
 8004bb6:	b004      	add	sp, #16
 8004bb8:	e8bd 87f0 	ldmia.w	sp!, {r4, r5, r6, r7, r8, r9, sl, pc}
 8004bbc:	6823      	ldr	r3, [r4, #0]
 8004bbe:	f043 0320 	orr.w	r3, r3, #32
 8004bc2:	6023      	str	r3, [r4, #0]
 8004bc4:	2778      	movs	r7, #120	; 0x78
 8004bc6:	4832      	ldr	r0, [pc, #200]	; (8004c90 <_printf_i+0x240>)
 8004bc8:	f884 7045 	strb.w	r7, [r4, #69]	; 0x45
 8004bcc:	6823      	ldr	r3, [r4, #0]
 8004bce:	6829      	ldr	r1, [r5, #0]
 8004bd0:	061f      	lsls	r7, r3, #24
 8004bd2:	f851 6b04 	ldr.w	r6, [r1], #4
 8004bd6:	d402      	bmi.n	8004bde <_printf_i+0x18e>
 8004bd8:	065f      	lsls	r7, r3, #25
 8004bda:	bf48      	it	mi
 8004bdc:	b2b6      	uxthmi	r6, r6
 8004bde:	07df      	lsls	r7, r3, #31
 8004be0:	bf48      	it	mi
 8004be2:	f043 0320 	orrmi.w	r3, r3, #32
 8004be6:	6029      	str	r1, [r5, #0]
 8004be8:	bf48      	it	mi
 8004bea:	6023      	strmi	r3, [r4, #0]
 8004bec:	b91e      	cbnz	r6, 8004bf6 <_printf_i+0x1a6>
 8004bee:	6823      	ldr	r3, [r4, #0]
 8004bf0:	f023 0320 	bic.w	r3, r3, #32
 8004bf4:	6023      	str	r3, [r4, #0]
 8004bf6:	2310      	movs	r3, #16
 8004bf8:	e7a6      	b.n	8004b48 <_printf_i+0xf8>
 8004bfa:	4824      	ldr	r0, [pc, #144]	; (8004c8c <_printf_i+0x23c>)
 8004bfc:	e7e4      	b.n	8004bc8 <_printf_i+0x178>
 8004bfe:	4615      	mov	r5, r2
 8004c00:	e7bd      	b.n	8004b7e <_printf_i+0x12e>
 8004c02:	682b      	ldr	r3, [r5, #0]
 8004c04:	6826      	ldr	r6, [r4, #0]
 8004c06:	1d18      	adds	r0, r3, #4
 8004c08:	6961      	ldr	r1, [r4, #20]
 8004c0a:	6028      	str	r0, [r5, #0]
 8004c0c:	0635      	lsls	r5, r6, #24
 8004c0e:	681b      	ldr	r3, [r3, #0]
 8004c10:	d501      	bpl.n	8004c16 <_printf_i+0x1c6>
 8004c12:	6019      	str	r1, [r3, #0]
 8004c14:	e002      	b.n	8004c1c <_printf_i+0x1cc>
 8004c16:	0670      	lsls	r0, r6, #25
 8004c18:	d5fb      	bpl.n	8004c12 <_printf_i+0x1c2>
 8004c1a:	8019      	strh	r1, [r3, #0]
 8004c1c:	2300      	movs	r3, #0
 8004c1e:	4615      	mov	r5, r2
 8004c20:	6123      	str	r3, [r4, #16]
 8004c22:	e7bc      	b.n	8004b9e <_printf_i+0x14e>
 8004c24:	682b      	ldr	r3, [r5, #0]
 8004c26:	2100      	movs	r1, #0
 8004c28:	1d1a      	adds	r2, r3, #4
 8004c2a:	602a      	str	r2, [r5, #0]
 8004c2c:	681d      	ldr	r5, [r3, #0]
 8004c2e:	6862      	ldr	r2, [r4, #4]
 8004c30:	4628      	mov	r0, r5
 8004c32:	f000 f9cd 	bl	8004fd0 <memchr>
 8004c36:	b108      	cbz	r0, 8004c3c <_printf_i+0x1ec>
 8004c38:	1b40      	subs	r0, r0, r5
 8004c3a:	6060      	str	r0, [r4, #4]
 8004c3c:	6863      	ldr	r3, [r4, #4]
 8004c3e:	6123      	str	r3, [r4, #16]
 8004c40:	2300      	movs	r3, #0
 8004c42:	f884 3043 	strb.w	r3, [r4, #67]	; 0x43
 8004c46:	e7aa      	b.n	8004b9e <_printf_i+0x14e>
 8004c48:	462a      	mov	r2, r5
 8004c4a:	4649      	mov	r1, r9
 8004c4c:	4640      	mov	r0, r8
 8004c4e:	6923      	ldr	r3, [r4, #16]
 8004c50:	47d0      	blx	sl
 8004c52:	3001      	adds	r0, #1
 8004c54:	d0ad      	beq.n	8004bb2 <_printf_i+0x162>
 8004c56:	6823      	ldr	r3, [r4, #0]
 8004c58:	079b      	lsls	r3, r3, #30
 8004c5a:	d413      	bmi.n	8004c84 <_printf_i+0x234>
 8004c5c:	68e0      	ldr	r0, [r4, #12]
 8004c5e:	9b03      	ldr	r3, [sp, #12]
 8004c60:	4298      	cmp	r0, r3
 8004c62:	bfb8      	it	lt
 8004c64:	4618      	movlt	r0, r3
 8004c66:	e7a6      	b.n	8004bb6 <_printf_i+0x166>
 8004c68:	2301      	movs	r3, #1
 8004c6a:	4632      	mov	r2, r6
 8004c6c:	4649      	mov	r1, r9
 8004c6e:	4640      	mov	r0, r8
 8004c70:	47d0      	blx	sl
 8004c72:	3001      	adds	r0, #1
 8004c74:	d09d      	beq.n	8004bb2 <_printf_i+0x162>
 8004c76:	3501      	adds	r5, #1
 8004c78:	68e3      	ldr	r3, [r4, #12]
 8004c7a:	9903      	ldr	r1, [sp, #12]
 8004c7c:	1a5b      	subs	r3, r3, r1
 8004c7e:	42ab      	cmp	r3, r5
 8004c80:	dcf2      	bgt.n	8004c68 <_printf_i+0x218>
 8004c82:	e7eb      	b.n	8004c5c <_printf_i+0x20c>
 8004c84:	2500      	movs	r5, #0
 8004c86:	f104 0619 	add.w	r6, r4, #25
 8004c8a:	e7f5      	b.n	8004c78 <_printf_i+0x228>
 8004c8c:	08005261 	.word	0x08005261
 8004c90:	08005272 	.word	0x08005272

08004c94 <__sflush_r>:
 8004c94:	898a      	ldrh	r2, [r1, #12]
 8004c96:	b5f8      	push	{r3, r4, r5, r6, r7, lr}
 8004c98:	4605      	mov	r5, r0
 8004c9a:	0710      	lsls	r0, r2, #28
 8004c9c:	460c      	mov	r4, r1
 8004c9e:	d457      	bmi.n	8004d50 <__sflush_r+0xbc>
 8004ca0:	684b      	ldr	r3, [r1, #4]
 8004ca2:	2b00      	cmp	r3, #0
 8004ca4:	dc04      	bgt.n	8004cb0 <__sflush_r+0x1c>
 8004ca6:	6c0b      	ldr	r3, [r1, #64]	; 0x40
 8004ca8:	2b00      	cmp	r3, #0
 8004caa:	dc01      	bgt.n	8004cb0 <__sflush_r+0x1c>
 8004cac:	2000      	movs	r0, #0
 8004cae:	bdf8      	pop	{r3, r4, r5, r6, r7, pc}
 8004cb0:	6ae6      	ldr	r6, [r4, #44]	; 0x2c
 8004cb2:	2e00      	cmp	r6, #0
 8004cb4:	d0fa      	beq.n	8004cac <__sflush_r+0x18>
 8004cb6:	2300      	movs	r3, #0
 8004cb8:	f412 5280 	ands.w	r2, r2, #4096	; 0x1000
 8004cbc:	682f      	ldr	r7, [r5, #0]
 8004cbe:	6a21      	ldr	r1, [r4, #32]
 8004cc0:	602b      	str	r3, [r5, #0]
 8004cc2:	d032      	beq.n	8004d2a <__sflush_r+0x96>
 8004cc4:	6d60      	ldr	r0, [r4, #84]	; 0x54
 8004cc6:	89a3      	ldrh	r3, [r4, #12]
 8004cc8:	075a      	lsls	r2, r3, #29
 8004cca:	d505      	bpl.n	8004cd8 <__sflush_r+0x44>
 8004ccc:	6863      	ldr	r3, [r4, #4]
 8004cce:	1ac0      	subs	r0, r0, r3
 8004cd0:	6b63      	ldr	r3, [r4, #52]	; 0x34
 8004cd2:	b10b      	cbz	r3, 8004cd8 <__sflush_r+0x44>
 8004cd4:	6c23      	ldr	r3, [r4, #64]	; 0x40
 8004cd6:	1ac0      	subs	r0, r0, r3
 8004cd8:	2300      	movs	r3, #0
 8004cda:	4602      	mov	r2, r0
 8004cdc:	6ae6      	ldr	r6, [r4, #44]	; 0x2c
 8004cde:	4628      	mov	r0, r5
 8004ce0:	6a21      	ldr	r1, [r4, #32]
 8004ce2:	47b0      	blx	r6
 8004ce4:	1c43      	adds	r3, r0, #1
 8004ce6:	89a3      	ldrh	r3, [r4, #12]
 8004ce8:	d106      	bne.n	8004cf8 <__sflush_r+0x64>
 8004cea:	6829      	ldr	r1, [r5, #0]
 8004cec:	291d      	cmp	r1, #29
 8004cee:	d82b      	bhi.n	8004d48 <__sflush_r+0xb4>
 8004cf0:	4a28      	ldr	r2, [pc, #160]	; (8004d94 <__sflush_r+0x100>)
 8004cf2:	410a      	asrs	r2, r1
 8004cf4:	07d6      	lsls	r6, r2, #31
 8004cf6:	d427      	bmi.n	8004d48 <__sflush_r+0xb4>
 8004cf8:	2200      	movs	r2, #0
 8004cfa:	6062      	str	r2, [r4, #4]
 8004cfc:	6922      	ldr	r2, [r4, #16]
 8004cfe:	04d9      	lsls	r1, r3, #19
 8004d00:	6022      	str	r2, [r4, #0]
 8004d02:	d504      	bpl.n	8004d0e <__sflush_r+0x7a>
 8004d04:	1c42      	adds	r2, r0, #1
 8004d06:	d101      	bne.n	8004d0c <__sflush_r+0x78>
 8004d08:	682b      	ldr	r3, [r5, #0]
 8004d0a:	b903      	cbnz	r3, 8004d0e <__sflush_r+0x7a>
 8004d0c:	6560      	str	r0, [r4, #84]	; 0x54
 8004d0e:	6b61      	ldr	r1, [r4, #52]	; 0x34
 8004d10:	602f      	str	r7, [r5, #0]
 8004d12:	2900      	cmp	r1, #0
 8004d14:	d0ca      	beq.n	8004cac <__sflush_r+0x18>
 8004d16:	f104 0344 	add.w	r3, r4, #68	; 0x44
 8004d1a:	4299      	cmp	r1, r3
 8004d1c:	d002      	beq.n	8004d24 <__sflush_r+0x90>
 8004d1e:	4628      	mov	r0, r5
 8004d20:	f7ff fa96 	bl	8004250 <_free_r>
 8004d24:	2000      	movs	r0, #0
 8004d26:	6360      	str	r0, [r4, #52]	; 0x34
 8004d28:	e7c1      	b.n	8004cae <__sflush_r+0x1a>
 8004d2a:	2301      	movs	r3, #1
 8004d2c:	4628      	mov	r0, r5
 8004d2e:	47b0      	blx	r6
 8004d30:	1c41      	adds	r1, r0, #1
 8004d32:	d1c8      	bne.n	8004cc6 <__sflush_r+0x32>
 8004d34:	682b      	ldr	r3, [r5, #0]
 8004d36:	2b00      	cmp	r3, #0
 8004d38:	d0c5      	beq.n	8004cc6 <__sflush_r+0x32>
 8004d3a:	2b1d      	cmp	r3, #29
 8004d3c:	d001      	beq.n	8004d42 <__sflush_r+0xae>
 8004d3e:	2b16      	cmp	r3, #22
 8004d40:	d101      	bne.n	8004d46 <__sflush_r+0xb2>
 8004d42:	602f      	str	r7, [r5, #0]
 8004d44:	e7b2      	b.n	8004cac <__sflush_r+0x18>
 8004d46:	89a3      	ldrh	r3, [r4, #12]
 8004d48:	f043 0340 	orr.w	r3, r3, #64	; 0x40
 8004d4c:	81a3      	strh	r3, [r4, #12]
 8004d4e:	e7ae      	b.n	8004cae <__sflush_r+0x1a>
 8004d50:	690f      	ldr	r7, [r1, #16]
 8004d52:	2f00      	cmp	r7, #0
 8004d54:	d0aa      	beq.n	8004cac <__sflush_r+0x18>
 8004d56:	0793      	lsls	r3, r2, #30
 8004d58:	bf18      	it	ne
 8004d5a:	2300      	movne	r3, #0
 8004d5c:	680e      	ldr	r6, [r1, #0]
 8004d5e:	bf08      	it	eq
 8004d60:	694b      	ldreq	r3, [r1, #20]
 8004d62:	1bf6      	subs	r6, r6, r7
 8004d64:	600f      	str	r7, [r1, #0]
 8004d66:	608b      	str	r3, [r1, #8]
 8004d68:	2e00      	cmp	r6, #0
 8004d6a:	dd9f      	ble.n	8004cac <__sflush_r+0x18>
 8004d6c:	4633      	mov	r3, r6
 8004d6e:	463a      	mov	r2, r7
 8004d70:	4628      	mov	r0, r5
 8004d72:	6a21      	ldr	r1, [r4, #32]
 8004d74:	f8d4 c028 	ldr.w	ip, [r4, #40]	; 0x28
 8004d78:	47e0      	blx	ip
 8004d7a:	2800      	cmp	r0, #0
 8004d7c:	dc06      	bgt.n	8004d8c <__sflush_r+0xf8>
 8004d7e:	89a3      	ldrh	r3, [r4, #12]
 8004d80:	f04f 30ff 	mov.w	r0, #4294967295
 8004d84:	f043 0340 	orr.w	r3, r3, #64	; 0x40
 8004d88:	81a3      	strh	r3, [r4, #12]
 8004d8a:	e790      	b.n	8004cae <__sflush_r+0x1a>
 8004d8c:	4407      	add	r7, r0
 8004d8e:	1a36      	subs	r6, r6, r0
 8004d90:	e7ea      	b.n	8004d68 <__sflush_r+0xd4>
 8004d92:	bf00      	nop
 8004d94:	dfbffffe 	.word	0xdfbffffe

08004d98 <_fflush_r>:
 8004d98:	b538      	push	{r3, r4, r5, lr}
 8004d9a:	690b      	ldr	r3, [r1, #16]
 8004d9c:	4605      	mov	r5, r0
 8004d9e:	460c      	mov	r4, r1
 8004da0:	b913      	cbnz	r3, 8004da8 <_fflush_r+0x10>
 8004da2:	2500      	movs	r5, #0
 8004da4:	4628      	mov	r0, r5
 8004da6:	bd38      	pop	{r3, r4, r5, pc}
 8004da8:	b118      	cbz	r0, 8004db2 <_fflush_r+0x1a>
 8004daa:	6a03      	ldr	r3, [r0, #32]
 8004dac:	b90b      	cbnz	r3, 8004db2 <_fflush_r+0x1a>
 8004dae:	f7ff f911 	bl	8003fd4 <__sinit>
 8004db2:	f9b4 300c 	ldrsh.w	r3, [r4, #12]
 8004db6:	2b00      	cmp	r3, #0
 8004db8:	d0f3      	beq.n	8004da2 <_fflush_r+0xa>
 8004dba:	6e62      	ldr	r2, [r4, #100]	; 0x64
 8004dbc:	07d0      	lsls	r0, r2, #31
 8004dbe:	d404      	bmi.n	8004dca <_fflush_r+0x32>
 8004dc0:	0599      	lsls	r1, r3, #22
 8004dc2:	d402      	bmi.n	8004dca <_fflush_r+0x32>
 8004dc4:	6da0      	ldr	r0, [r4, #88]	; 0x58
 8004dc6:	f7ff fa32 	bl	800422e <__retarget_lock_acquire_recursive>
 8004dca:	4628      	mov	r0, r5
 8004dcc:	4621      	mov	r1, r4
 8004dce:	f7ff ff61 	bl	8004c94 <__sflush_r>
 8004dd2:	6e63      	ldr	r3, [r4, #100]	; 0x64
 8004dd4:	4605      	mov	r5, r0
 8004dd6:	07da      	lsls	r2, r3, #31
 8004dd8:	d4e4      	bmi.n	8004da4 <_fflush_r+0xc>
 8004dda:	89a3      	ldrh	r3, [r4, #12]
 8004ddc:	059b      	lsls	r3, r3, #22
 8004dde:	d4e1      	bmi.n	8004da4 <_fflush_r+0xc>
 8004de0:	6da0      	ldr	r0, [r4, #88]	; 0x58
 8004de2:	f7ff fa25 	bl	8004230 <__retarget_lock_release_recursive>
 8004de6:	e7dd      	b.n	8004da4 <_fflush_r+0xc>

08004de8 <_putc_r>:
 8004de8:	b570      	push	{r4, r5, r6, lr}
 8004dea:	460d      	mov	r5, r1
 8004dec:	4614      	mov	r4, r2
 8004dee:	4606      	mov	r6, r0
 8004df0:	b118      	cbz	r0, 8004dfa <_putc_r+0x12>
 8004df2:	6a03      	ldr	r3, [r0, #32]
 8004df4:	b90b      	cbnz	r3, 8004dfa <_putc_r+0x12>
 8004df6:	f7ff f8ed 	bl	8003fd4 <__sinit>
 8004dfa:	6e63      	ldr	r3, [r4, #100]	; 0x64
 8004dfc:	07d8      	lsls	r0, r3, #31
 8004dfe:	d405      	bmi.n	8004e0c <_putc_r+0x24>
 8004e00:	89a3      	ldrh	r3, [r4, #12]
 8004e02:	0599      	lsls	r1, r3, #22
 8004e04:	d402      	bmi.n	8004e0c <_putc_r+0x24>
 8004e06:	6da0      	ldr	r0, [r4, #88]	; 0x58
 8004e08:	f7ff fa11 	bl	800422e <__retarget_lock_acquire_recursive>
 8004e0c:	68a3      	ldr	r3, [r4, #8]
 8004e0e:	3b01      	subs	r3, #1
 8004e10:	2b00      	cmp	r3, #0
 8004e12:	60a3      	str	r3, [r4, #8]
 8004e14:	da05      	bge.n	8004e22 <_putc_r+0x3a>
 8004e16:	69a2      	ldr	r2, [r4, #24]
 8004e18:	4293      	cmp	r3, r2
 8004e1a:	db12      	blt.n	8004e42 <_putc_r+0x5a>
 8004e1c:	b2eb      	uxtb	r3, r5
 8004e1e:	2b0a      	cmp	r3, #10
 8004e20:	d00f      	beq.n	8004e42 <_putc_r+0x5a>
 8004e22:	6823      	ldr	r3, [r4, #0]
 8004e24:	1c5a      	adds	r2, r3, #1
 8004e26:	6022      	str	r2, [r4, #0]
 8004e28:	701d      	strb	r5, [r3, #0]
 8004e2a:	b2ed      	uxtb	r5, r5
 8004e2c:	6e63      	ldr	r3, [r4, #100]	; 0x64
 8004e2e:	07da      	lsls	r2, r3, #31
 8004e30:	d405      	bmi.n	8004e3e <_putc_r+0x56>
 8004e32:	89a3      	ldrh	r3, [r4, #12]
 8004e34:	059b      	lsls	r3, r3, #22
 8004e36:	d402      	bmi.n	8004e3e <_putc_r+0x56>
 8004e38:	6da0      	ldr	r0, [r4, #88]	; 0x58
 8004e3a:	f7ff f9f9 	bl	8004230 <__retarget_lock_release_recursive>
 8004e3e:	4628      	mov	r0, r5
 8004e40:	bd70      	pop	{r4, r5, r6, pc}
 8004e42:	4629      	mov	r1, r5
 8004e44:	4622      	mov	r2, r4
 8004e46:	4630      	mov	r0, r6
 8004e48:	f000 f802 	bl	8004e50 <__swbuf_r>
 8004e4c:	4605      	mov	r5, r0
 8004e4e:	e7ed      	b.n	8004e2c <_putc_r+0x44>

08004e50 <__swbuf_r>:
 8004e50:	b5f8      	push	{r3, r4, r5, r6, r7, lr}
 8004e52:	460e      	mov	r6, r1
 8004e54:	4614      	mov	r4, r2
 8004e56:	4605      	mov	r5, r0
 8004e58:	b118      	cbz	r0, 8004e62 <__swbuf_r+0x12>
 8004e5a:	6a03      	ldr	r3, [r0, #32]
 8004e5c:	b90b      	cbnz	r3, 8004e62 <__swbuf_r+0x12>
 8004e5e:	f7ff f8b9 	bl	8003fd4 <__sinit>
 8004e62:	69a3      	ldr	r3, [r4, #24]
 8004e64:	60a3      	str	r3, [r4, #8]
 8004e66:	89a3      	ldrh	r3, [r4, #12]
 8004e68:	071a      	lsls	r2, r3, #28
 8004e6a:	d525      	bpl.n	8004eb8 <__swbuf_r+0x68>
 8004e6c:	6923      	ldr	r3, [r4, #16]
 8004e6e:	b31b      	cbz	r3, 8004eb8 <__swbuf_r+0x68>
 8004e70:	6823      	ldr	r3, [r4, #0]
 8004e72:	6922      	ldr	r2, [r4, #16]
 8004e74:	b2f6      	uxtb	r6, r6
 8004e76:	1a98      	subs	r0, r3, r2
 8004e78:	6963      	ldr	r3, [r4, #20]
 8004e7a:	4637      	mov	r7, r6
 8004e7c:	4283      	cmp	r3, r0
 8004e7e:	dc04      	bgt.n	8004e8a <__swbuf_r+0x3a>
 8004e80:	4621      	mov	r1, r4
 8004e82:	4628      	mov	r0, r5
 8004e84:	f7ff ff88 	bl	8004d98 <_fflush_r>
 8004e88:	b9e0      	cbnz	r0, 8004ec4 <__swbuf_r+0x74>
 8004e8a:	68a3      	ldr	r3, [r4, #8]
 8004e8c:	3b01      	subs	r3, #1
 8004e8e:	60a3      	str	r3, [r4, #8]
 8004e90:	6823      	ldr	r3, [r4, #0]
 8004e92:	1c5a      	adds	r2, r3, #1
 8004e94:	6022      	str	r2, [r4, #0]
 8004e96:	701e      	strb	r6, [r3, #0]
 8004e98:	6962      	ldr	r2, [r4, #20]
 8004e9a:	1c43      	adds	r3, r0, #1
 8004e9c:	429a      	cmp	r2, r3
 8004e9e:	d004      	beq.n	8004eaa <__swbuf_r+0x5a>
 8004ea0:	89a3      	ldrh	r3, [r4, #12]
 8004ea2:	07db      	lsls	r3, r3, #31
 8004ea4:	d506      	bpl.n	8004eb4 <__swbuf_r+0x64>
 8004ea6:	2e0a      	cmp	r6, #10
 8004ea8:	d104      	bne.n	8004eb4 <__swbuf_r+0x64>
 8004eaa:	4621      	mov	r1, r4
 8004eac:	4628      	mov	r0, r5
 8004eae:	f7ff ff73 	bl	8004d98 <_fflush_r>
 8004eb2:	b938      	cbnz	r0, 8004ec4 <__swbuf_r+0x74>
 8004eb4:	4638      	mov	r0, r7
 8004eb6:	bdf8      	pop	{r3, r4, r5, r6, r7, pc}
 8004eb8:	4621      	mov	r1, r4
 8004eba:	4628      	mov	r0, r5
 8004ebc:	f000 f806 	bl	8004ecc <__swsetup_r>
 8004ec0:	2800      	cmp	r0, #0
 8004ec2:	d0d5      	beq.n	8004e70 <__swbuf_r+0x20>
 8004ec4:	f04f 37ff 	mov.w	r7, #4294967295
 8004ec8:	e7f4      	b.n	8004eb4 <__swbuf_r+0x64>
	...

08004ecc <__swsetup_r>:
 8004ecc:	b538      	push	{r3, r4, r5, lr}
 8004ece:	4b2a      	ldr	r3, [pc, #168]	; (8004f78 <__swsetup_r+0xac>)
 8004ed0:	4605      	mov	r5, r0
 8004ed2:	6818      	ldr	r0, [r3, #0]
 8004ed4:	460c      	mov	r4, r1
 8004ed6:	b118      	cbz	r0, 8004ee0 <__swsetup_r+0x14>
 8004ed8:	6a03      	ldr	r3, [r0, #32]
 8004eda:	b90b      	cbnz	r3, 8004ee0 <__swsetup_r+0x14>
 8004edc:	f7ff f87a 	bl	8003fd4 <__sinit>
 8004ee0:	89a3      	ldrh	r3, [r4, #12]
 8004ee2:	f9b4 200c 	ldrsh.w	r2, [r4, #12]
 8004ee6:	0718      	lsls	r0, r3, #28
 8004ee8:	d422      	bmi.n	8004f30 <__swsetup_r+0x64>
 8004eea:	06d9      	lsls	r1, r3, #27
 8004eec:	d407      	bmi.n	8004efe <__swsetup_r+0x32>
 8004eee:	2309      	movs	r3, #9
 8004ef0:	602b      	str	r3, [r5, #0]
 8004ef2:	f042 0340 	orr.w	r3, r2, #64	; 0x40
 8004ef6:	f04f 30ff 	mov.w	r0, #4294967295
 8004efa:	81a3      	strh	r3, [r4, #12]
 8004efc:	e034      	b.n	8004f68 <__swsetup_r+0x9c>
 8004efe:	0758      	lsls	r0, r3, #29
 8004f00:	d512      	bpl.n	8004f28 <__swsetup_r+0x5c>
 8004f02:	6b61      	ldr	r1, [r4, #52]	; 0x34
 8004f04:	b141      	cbz	r1, 8004f18 <__swsetup_r+0x4c>
 8004f06:	f104 0344 	add.w	r3, r4, #68	; 0x44
 8004f0a:	4299      	cmp	r1, r3
 8004f0c:	d002      	beq.n	8004f14 <__swsetup_r+0x48>
 8004f0e:	4628      	mov	r0, r5
 8004f10:	f7ff f99e 	bl	8004250 <_free_r>
 8004f14:	2300      	movs	r3, #0
 8004f16:	6363      	str	r3, [r4, #52]	; 0x34
 8004f18:	89a3      	ldrh	r3, [r4, #12]
 8004f1a:	f023 0324 	bic.w	r3, r3, #36	; 0x24
 8004f1e:	81a3      	strh	r3, [r4, #12]
 8004f20:	2300      	movs	r3, #0
 8004f22:	6063      	str	r3, [r4, #4]
 8004f24:	6923      	ldr	r3, [r4, #16]
 8004f26:	6023      	str	r3, [r4, #0]
 8004f28:	89a3      	ldrh	r3, [r4, #12]
 8004f2a:	f043 0308 	orr.w	r3, r3, #8
 8004f2e:	81a3      	strh	r3, [r4, #12]
 8004f30:	6923      	ldr	r3, [r4, #16]
 8004f32:	b94b      	cbnz	r3, 8004f48 <__swsetup_r+0x7c>
 8004f34:	89a3      	ldrh	r3, [r4, #12]
 8004f36:	f403 7320 	and.w	r3, r3, #640	; 0x280
 8004f3a:	f5b3 7f00 	cmp.w	r3, #512	; 0x200
 8004f3e:	d003      	beq.n	8004f48 <__swsetup_r+0x7c>
 8004f40:	4621      	mov	r1, r4
 8004f42:	4628      	mov	r0, r5
 8004f44:	f000 f8a6 	bl	8005094 <__smakebuf_r>
 8004f48:	89a0      	ldrh	r0, [r4, #12]
 8004f4a:	f9b4 200c 	ldrsh.w	r2, [r4, #12]
 8004f4e:	f010 0301 	ands.w	r3, r0, #1
 8004f52:	d00a      	beq.n	8004f6a <__swsetup_r+0x9e>
 8004f54:	2300      	movs	r3, #0
 8004f56:	60a3      	str	r3, [r4, #8]
 8004f58:	6963      	ldr	r3, [r4, #20]
 8004f5a:	425b      	negs	r3, r3
 8004f5c:	61a3      	str	r3, [r4, #24]
 8004f5e:	6923      	ldr	r3, [r4, #16]
 8004f60:	b943      	cbnz	r3, 8004f74 <__swsetup_r+0xa8>
 8004f62:	f010 0080 	ands.w	r0, r0, #128	; 0x80
 8004f66:	d1c4      	bne.n	8004ef2 <__swsetup_r+0x26>
 8004f68:	bd38      	pop	{r3, r4, r5, pc}
 8004f6a:	0781      	lsls	r1, r0, #30
 8004f6c:	bf58      	it	pl
 8004f6e:	6963      	ldrpl	r3, [r4, #20]
 8004f70:	60a3      	str	r3, [r4, #8]
 8004f72:	e7f4      	b.n	8004f5e <__swsetup_r+0x92>
 8004f74:	2000      	movs	r0, #0
 8004f76:	e7f7      	b.n	8004f68 <__swsetup_r+0x9c>
 8004f78:	200001d8 	.word	0x200001d8

08004f7c <memmove>:
 8004f7c:	4288      	cmp	r0, r1
 8004f7e:	b510      	push	{r4, lr}
 8004f80:	eb01 0402 	add.w	r4, r1, r2
 8004f84:	d902      	bls.n	8004f8c <memmove+0x10>
 8004f86:	4284      	cmp	r4, r0
 8004f88:	4623      	mov	r3, r4
 8004f8a:	d807      	bhi.n	8004f9c <memmove+0x20>
 8004f8c:	1e43      	subs	r3, r0, #1
 8004f8e:	42a1      	cmp	r1, r4
 8004f90:	d008      	beq.n	8004fa4 <memmove+0x28>
 8004f92:	f811 2b01 	ldrb.w	r2, [r1], #1
 8004f96:	f803 2f01 	strb.w	r2, [r3, #1]!
 8004f9a:	e7f8      	b.n	8004f8e <memmove+0x12>
 8004f9c:	4601      	mov	r1, r0
 8004f9e:	4402      	add	r2, r0
 8004fa0:	428a      	cmp	r2, r1
 8004fa2:	d100      	bne.n	8004fa6 <memmove+0x2a>
 8004fa4:	bd10      	pop	{r4, pc}
 8004fa6:	f813 4d01 	ldrb.w	r4, [r3, #-1]!
 8004faa:	f802 4d01 	strb.w	r4, [r2, #-1]!
 8004fae:	e7f7      	b.n	8004fa0 <memmove+0x24>

08004fb0 <_sbrk_r>:
 8004fb0:	b538      	push	{r3, r4, r5, lr}
 8004fb2:	2300      	movs	r3, #0
 8004fb4:	4d05      	ldr	r5, [pc, #20]	; (8004fcc <_sbrk_r+0x1c>)
 8004fb6:	4604      	mov	r4, r0
 8004fb8:	4608      	mov	r0, r1
 8004fba:	602b      	str	r3, [r5, #0]
 8004fbc:	f7fb fc42 	bl	8000844 <_sbrk>
 8004fc0:	1c43      	adds	r3, r0, #1
 8004fc2:	d102      	bne.n	8004fca <_sbrk_r+0x1a>
 8004fc4:	682b      	ldr	r3, [r5, #0]
 8004fc6:	b103      	cbz	r3, 8004fca <_sbrk_r+0x1a>
 8004fc8:	6023      	str	r3, [r4, #0]
 8004fca:	bd38      	pop	{r3, r4, r5, pc}
 8004fcc:	20001e6c 	.word	0x20001e6c

08004fd0 <memchr>:
 8004fd0:	4603      	mov	r3, r0
 8004fd2:	b510      	push	{r4, lr}
 8004fd4:	b2c9      	uxtb	r1, r1
 8004fd6:	4402      	add	r2, r0
 8004fd8:	4293      	cmp	r3, r2
 8004fda:	4618      	mov	r0, r3
 8004fdc:	d101      	bne.n	8004fe2 <memchr+0x12>
 8004fde:	2000      	movs	r0, #0
 8004fe0:	e003      	b.n	8004fea <memchr+0x1a>
 8004fe2:	7804      	ldrb	r4, [r0, #0]
 8004fe4:	3301      	adds	r3, #1
 8004fe6:	428c      	cmp	r4, r1
 8004fe8:	d1f6      	bne.n	8004fd8 <memchr+0x8>
 8004fea:	bd10      	pop	{r4, pc}

08004fec <_realloc_r>:
 8004fec:	e92d 41f0 	stmdb	sp!, {r4, r5, r6, r7, r8, lr}
 8004ff0:	4680      	mov	r8, r0
 8004ff2:	4614      	mov	r4, r2
 8004ff4:	460e      	mov	r6, r1
 8004ff6:	b921      	cbnz	r1, 8005002 <_realloc_r+0x16>
 8004ff8:	4611      	mov	r1, r2
 8004ffa:	e8bd 41f0 	ldmia.w	sp!, {r4, r5, r6, r7, r8, lr}
 8004ffe:	f7ff b98f 	b.w	8004320 <_malloc_r>
 8005002:	b92a      	cbnz	r2, 8005010 <_realloc_r+0x24>
 8005004:	f7ff f924 	bl	8004250 <_free_r>
 8005008:	4625      	mov	r5, r4
 800500a:	4628      	mov	r0, r5
 800500c:	e8bd 81f0 	ldmia.w	sp!, {r4, r5, r6, r7, r8, pc}
 8005010:	f000 f89e 	bl	8005150 <_malloc_usable_size_r>
 8005014:	4284      	cmp	r4, r0
 8005016:	4607      	mov	r7, r0
 8005018:	d802      	bhi.n	8005020 <_realloc_r+0x34>
 800501a:	ebb4 0f50 	cmp.w	r4, r0, lsr #1
 800501e:	d812      	bhi.n	8005046 <_realloc_r+0x5a>
 8005020:	4621      	mov	r1, r4
 8005022:	4640      	mov	r0, r8
 8005024:	f7ff f97c 	bl	8004320 <_malloc_r>
 8005028:	4605      	mov	r5, r0
 800502a:	2800      	cmp	r0, #0
 800502c:	d0ed      	beq.n	800500a <_realloc_r+0x1e>
 800502e:	42bc      	cmp	r4, r7
 8005030:	4622      	mov	r2, r4
 8005032:	4631      	mov	r1, r6
 8005034:	bf28      	it	cs
 8005036:	463a      	movcs	r2, r7
 8005038:	f7ff f8fb 	bl	8004232 <memcpy>
 800503c:	4631      	mov	r1, r6
 800503e:	4640      	mov	r0, r8
 8005040:	f7ff f906 	bl	8004250 <_free_r>
 8005044:	e7e1      	b.n	800500a <_realloc_r+0x1e>
 8005046:	4635      	mov	r5, r6
 8005048:	e7df      	b.n	800500a <_realloc_r+0x1e>

0800504a <__swhatbuf_r>:
 800504a:	b570      	push	{r4, r5, r6, lr}
 800504c:	460c      	mov	r4, r1
 800504e:	f9b1 100e 	ldrsh.w	r1, [r1, #14]
 8005052:	4615      	mov	r5, r2
 8005054:	2900      	cmp	r1, #0
 8005056:	461e      	mov	r6, r3
 8005058:	b096      	sub	sp, #88	; 0x58
 800505a:	da0c      	bge.n	8005076 <__swhatbuf_r+0x2c>
 800505c:	89a3      	ldrh	r3, [r4, #12]
 800505e:	2100      	movs	r1, #0
 8005060:	f013 0f80 	tst.w	r3, #128	; 0x80
 8005064:	bf0c      	ite	eq
 8005066:	f44f 6380 	moveq.w	r3, #1024	; 0x400
 800506a:	2340      	movne	r3, #64	; 0x40
 800506c:	2000      	movs	r0, #0
 800506e:	6031      	str	r1, [r6, #0]
 8005070:	602b      	str	r3, [r5, #0]
 8005072:	b016      	add	sp, #88	; 0x58
 8005074:	bd70      	pop	{r4, r5, r6, pc}
 8005076:	466a      	mov	r2, sp
 8005078:	f000 f848 	bl	800510c <_fstat_r>
 800507c:	2800      	cmp	r0, #0
 800507e:	dbed      	blt.n	800505c <__swhatbuf_r+0x12>
 8005080:	9901      	ldr	r1, [sp, #4]
 8005082:	f401 4170 	and.w	r1, r1, #61440	; 0xf000
 8005086:	f5a1 5300 	sub.w	r3, r1, #8192	; 0x2000
 800508a:	4259      	negs	r1, r3
 800508c:	4159      	adcs	r1, r3
 800508e:	f44f 6380 	mov.w	r3, #1024	; 0x400
 8005092:	e7eb      	b.n	800506c <__swhatbuf_r+0x22>

08005094 <__smakebuf_r>:
 8005094:	898b      	ldrh	r3, [r1, #12]
 8005096:	b573      	push	{r0, r1, r4, r5, r6, lr}
 8005098:	079d      	lsls	r5, r3, #30
 800509a:	4606      	mov	r6, r0
 800509c:	460c      	mov	r4, r1
 800509e:	d507      	bpl.n	80050b0 <__smakebuf_r+0x1c>
 80050a0:	f104 0347 	add.w	r3, r4, #71	; 0x47
 80050a4:	6023      	str	r3, [r4, #0]
 80050a6:	6123      	str	r3, [r4, #16]
 80050a8:	2301      	movs	r3, #1
 80050aa:	6163      	str	r3, [r4, #20]
 80050ac:	b002      	add	sp, #8
 80050ae:	bd70      	pop	{r4, r5, r6, pc}
 80050b0:	466a      	mov	r2, sp
 80050b2:	ab01      	add	r3, sp, #4
 80050b4:	f7ff ffc9 	bl	800504a <__swhatbuf_r>
 80050b8:	9900      	ldr	r1, [sp, #0]
 80050ba:	4605      	mov	r5, r0
 80050bc:	4630      	mov	r0, r6
 80050be:	f7ff f92f 	bl	8004320 <_malloc_r>
 80050c2:	b948      	cbnz	r0, 80050d8 <__smakebuf_r+0x44>
 80050c4:	f9b4 300c 	ldrsh.w	r3, [r4, #12]
 80050c8:	059a      	lsls	r2, r3, #22
 80050ca:	d4ef      	bmi.n	80050ac <__smakebuf_r+0x18>
 80050cc:	f023 0303 	bic.w	r3, r3, #3
 80050d0:	f043 0302 	orr.w	r3, r3, #2
 80050d4:	81a3      	strh	r3, [r4, #12]
 80050d6:	e7e3      	b.n	80050a0 <__smakebuf_r+0xc>
 80050d8:	89a3      	ldrh	r3, [r4, #12]
 80050da:	6020      	str	r0, [r4, #0]
 80050dc:	f043 0380 	orr.w	r3, r3, #128	; 0x80
 80050e0:	81a3      	strh	r3, [r4, #12]
 80050e2:	9b00      	ldr	r3, [sp, #0]
 80050e4:	6120      	str	r0, [r4, #16]
 80050e6:	6163      	str	r3, [r4, #20]
 80050e8:	9b01      	ldr	r3, [sp, #4]
 80050ea:	b15b      	cbz	r3, 8005104 <__smakebuf_r+0x70>
 80050ec:	4630      	mov	r0, r6
 80050ee:	f9b4 100e 	ldrsh.w	r1, [r4, #14]
 80050f2:	f000 f81d 	bl	8005130 <_isatty_r>
 80050f6:	b128      	cbz	r0, 8005104 <__smakebuf_r+0x70>
 80050f8:	89a3      	ldrh	r3, [r4, #12]
 80050fa:	f023 0303 	bic.w	r3, r3, #3
 80050fe:	f043 0301 	orr.w	r3, r3, #1
 8005102:	81a3      	strh	r3, [r4, #12]
 8005104:	89a3      	ldrh	r3, [r4, #12]
 8005106:	431d      	orrs	r5, r3
 8005108:	81a5      	strh	r5, [r4, #12]
 800510a:	e7cf      	b.n	80050ac <__smakebuf_r+0x18>

0800510c <_fstat_r>:
 800510c:	b538      	push	{r3, r4, r5, lr}
 800510e:	2300      	movs	r3, #0
 8005110:	4d06      	ldr	r5, [pc, #24]	; (800512c <_fstat_r+0x20>)
 8005112:	4604      	mov	r4, r0
 8005114:	4608      	mov	r0, r1
 8005116:	4611      	mov	r1, r2
 8005118:	602b      	str	r3, [r5, #0]
 800511a:	f7fb fb8a 	bl	8000832 <_fstat>
 800511e:	1c43      	adds	r3, r0, #1
 8005120:	d102      	bne.n	8005128 <_fstat_r+0x1c>
 8005122:	682b      	ldr	r3, [r5, #0]
 8005124:	b103      	cbz	r3, 8005128 <_fstat_r+0x1c>
 8005126:	6023      	str	r3, [r4, #0]
 8005128:	bd38      	pop	{r3, r4, r5, pc}
 800512a:	bf00      	nop
 800512c:	20001e6c 	.word	0x20001e6c

08005130 <_isatty_r>:
 8005130:	b538      	push	{r3, r4, r5, lr}
 8005132:	2300      	movs	r3, #0
 8005134:	4d05      	ldr	r5, [pc, #20]	; (800514c <_isatty_r+0x1c>)
 8005136:	4604      	mov	r4, r0
 8005138:	4608      	mov	r0, r1
 800513a:	602b      	str	r3, [r5, #0]
 800513c:	f7fb fb7e 	bl	800083c <_isatty>
 8005140:	1c43      	adds	r3, r0, #1
 8005142:	d102      	bne.n	800514a <_isatty_r+0x1a>
 8005144:	682b      	ldr	r3, [r5, #0]
 8005146:	b103      	cbz	r3, 800514a <_isatty_r+0x1a>
 8005148:	6023      	str	r3, [r4, #0]
 800514a:	bd38      	pop	{r3, r4, r5, pc}
 800514c:	20001e6c 	.word	0x20001e6c

08005150 <_malloc_usable_size_r>:
 8005150:	f851 3c04 	ldr.w	r3, [r1, #-4]
 8005154:	1f18      	subs	r0, r3, #4
 8005156:	2b00      	cmp	r3, #0
 8005158:	bfbc      	itt	lt
 800515a:	580b      	ldrlt	r3, [r1, r0]
 800515c:	18c0      	addlt	r0, r0, r3
 800515e:	4770      	bx	lr

08005160 <_init>:
 8005160:	b5f8      	push	{r3, r4, r5, r6, r7, lr}
 8005162:	bf00      	nop
 8005164:	bcf8      	pop	{r3, r4, r5, r6, r7}
 8005166:	bc08      	pop	{r3}
 8005168:	469e      	mov	lr, r3
 800516a:	4770      	bx	lr

0800516c <_fini>:
 800516c:	b5f8      	push	{r3, r4, r5, r6, r7, lr}
 800516e:	bf00      	nop
 8005170:	bcf8      	pop	{r3, r4, r5, r6, r7}
 8005172:	bc08      	pop	{r3}
 8005174:	469e      	mov	lr, r3
 8005176:	4770      	bx	lr
